   1               		.file	"stk500boot.c"
   2               	__SREG__ = 0x3f
   3               	__SP_H__ = 0x3e
   4               	__SP_L__ = 0x3d
   5               	__CCP__  = 0x34
   6               	__tmp_reg__ = 0
   7               	__zero_reg__ = 1
   8               		.global __do_copy_data
   9               		.global __do_clear_bss
  17               	.Ltext0:
  18               		.section	.init9,"ax",@progbits
  19               	.global	__jumpMain
  21               	__jumpMain:
  22               	.LFB14:
  23               	.LSM0:
  24               	/* prologue: naked */
  25               	/* frame size = 0 */
  26               	.LSM1:
  27               	/* #APP */
  28               	 ;  436 "stk500boot.c" 1
  29               		.set __stack, 8703
  30               	 ;  0 "" 2
  31               	.LSM2:
  32               	 ;  440 "stk500boot.c" 1
  33 0000 01E2      		ldi	16, 33
  34               	 ;  0 "" 2
  35               	.LSM3:
  36               	 ;  441 "stk500boot.c" 1
  37 0002 0EBF      		out 62,16
  38               	 ;  0 "" 2
  39               	.LSM4:
  40               	 ;  443 "stk500boot.c" 1
  41 0004 0FEF      		ldi	16, 255
  42               	 ;  0 "" 2
  43               	.LSM5:
  44               	 ;  444 "stk500boot.c" 1
  45 0006 0DBF      		out 61,16
  46               	 ;  0 "" 2
  47               	.LSM6:
  48               	 ;  446 "stk500boot.c" 1
  49 0008 1124      		clr __zero_reg__
  50               	 ;  0 "" 2
  51               	.LSM7:
  52               	 ;  447 "stk500boot.c" 1
  53 000a 1FBE      		out 63, __zero_reg__
  54               	 ;  0 "" 2
  55               	.LSM8:
  56               	 ;  448 "stk500boot.c" 1
  57 000c 0C94 0000 		jmp main
  58               	 ;  0 "" 2
  59               	/* epilogue start */
  60               	.LSM9:
  61               	/* #NOAPP */
  62               	.LFE14:
  64               		.text
  65               	.global	delay_ms
  67               	delay_ms:
  68               	.LFB15:
  69               	.LM1:
  70               	.LVL0:
  71               	/* prologue: function */
  72               	/* frame size = 0 */
  73               	.LM2:
  74 0000 20E0      		ldi r18,lo8(0)
  75 0002 30E0      		ldi r19,hi8(0)
  76               	.LVL1:
  77               	.LBB518:
  78               	.LBB519:
  79               	.LBB520:
  80               	.LBB521:
  81               	.LM3:
  82 0004 40ED      		ldi r20,lo8(2000)
  83 0006 57E0      		ldi r21,hi8(2000)
  84 0008 00C0      		rjmp .L4
  85               	.LVL2:
  86               	.L5:
  87 000a FA01      		movw r30,r20
  88               	/* #APP */
  89               	 ;  105 "/Applications/Arduino.app/Contents/Resources/Java/hardware/tools/avr/bin/../lib/gcc/avr/4.
  90 000c 3197      		1: sbiw r30,1
  91 000e 01F4      		brne 1b
  92               	 ;  0 "" 2
  93               	/* #NOAPP */
  94               	.LBE521:
  95               	.LBE520:
  96               	.LBE519:
  97               	.LBE518:
  98               	.LM4:
  99 0010 2F5F      		subi r18,lo8(-(1))
 100 0012 3F4F      		sbci r19,hi8(-(1))
 101               	.L4:
 102 0014 2817      		cp r18,r24
 103 0016 3907      		cpc r19,r25
 104 0018 00F0      		brlo .L5
 105               	/* epilogue start */
 106               	.LM5:
 107 001a 0895      		ret
 108               	.LFE15:
 110               	.global	PrintFromPROGMEM
 112               	PrintFromPROGMEM:
 113               	.LFB23:
 114               	.LM6:
 115               	.LVL3:
 116               	/* prologue: function */
 117               	/* frame size = 0 */
 118               	.LM7:
 119 001c 9C01      		movw r18,r24
 120 001e 260F      		add r18,r22
 121 0020 311D      		adc r19,__zero_reg__
 122               	.LVL4:
 123               	.L10:
 124               	.LBB522:
 125               	.LM8:
 126 0022 C901      		movw r24,r18
 127               	.LVL5:
 128 0024 A0E0      		ldi r26,lo8(0)
 129 0026 B0E0      		ldi r27,hi8(0)
 130 0028 2F5F      		subi r18,lo8(-(1))
 131 002a 3F4F      		sbci r19,hi8(-(1))
 132               	/* #APP */
 133               	 ;  1298 "stk500boot.c" 1
 134 002c ABBF      		out 59, r26
 135 002e FC01      		movw r30, r24
 136 0030 8791      		elpm r24, Z+
 137               		
 138               	 ;  0 "" 2
 139               	.LVL6:
 140               	/* #NOAPP */
 141               	.LBE522:
 142               	.LM9:
 143 0032 8823      		tst r24
 144 0034 01F0      		breq .L11
 145               	.LBB523:
 146               	.LBB524:
 147               	.LM10:
 148 0036 8093 C600 		sts 198,r24
 149               	.L9:
 150               	.LM11:
 151 003a 8091 C000 		lds r24,192
 152               	.LVL7:
 153 003e 86FF      		sbrs r24,6
 154 0040 00C0      		rjmp .L9
 155               	.LM12:
 156 0042 8091 C000 		lds r24,192
 157 0046 8064      		ori r24,lo8(64)
 158 0048 8093 C000 		sts 192,r24
 159 004c 00C0      		rjmp .L10
 160               	.LVL8:
 161               	.L11:
 162 004e 0895      		ret
 163               	.LBE524:
 164               	.LBE523:
 165               	.LFE23:
 167               	.global	PrintNewLine
 169               	PrintNewLine:
 170               	.LFB24:
 171               	.LM13:
 172               	/* prologue: function */
 173               	/* frame size = 0 */
 174               	.LBB525:
 175               	.LBB526:
 176               	.LM14:
 177 0050 8DE0      		ldi r24,lo8(13)
 178 0052 8093 C600 		sts 198,r24
 179               	.L14:
 180               	.LM15:
 181 0056 8091 C000 		lds r24,192
 182 005a 86FF      		sbrs r24,6
 183 005c 00C0      		rjmp .L14
 184               	.LM16:
 185 005e 8091 C000 		lds r24,192
 186 0062 8064      		ori r24,lo8(64)
 187 0064 8093 C000 		sts 192,r24
 188               	.LBE526:
 189               	.LBE525:
 190               	.LBB527:
 191               	.LBB528:
 192               	.LM17:
 193 0068 8AE0      		ldi r24,lo8(10)
 194 006a 8093 C600 		sts 198,r24
 195               	.L15:
 196               	.LM18:
 197 006e 8091 C000 		lds r24,192
 198 0072 86FF      		sbrs r24,6
 199 0074 00C0      		rjmp .L15
 200               	.LM19:
 201 0076 8091 C000 		lds r24,192
 202 007a 8064      		ori r24,lo8(64)
 203 007c 8093 C000 		sts 192,r24
 204               	/* epilogue start */
 205               	.LBE528:
 206               	.LBE527:
 207               	.LM20:
 208 0080 0895      		ret
 209               	.LFE24:
 211               	.global	PrintFromPROGMEMln
 213               	PrintFromPROGMEMln:
 214               	.LFB25:
 215               	.LM21:
 216               	.LVL9:
 217               	/* prologue: function */
 218               	/* frame size = 0 */
 219               	.LBB529:
 220               	.LBB530:
 221               	.LM22:
 222 0082 9C01      		movw r18,r24
 223               	.LVL10:
 224 0084 260F      		add r18,r22
 225 0086 311D      		adc r19,__zero_reg__
 226               	.LVL11:
 227               	.L22:
 228               	.LBB531:
 229               	.LM23:
 230 0088 C901      		movw r24,r18
 231               	.LVL12:
 232 008a A0E0      		ldi r26,lo8(0)
 233 008c B0E0      		ldi r27,hi8(0)
 234 008e 2F5F      		subi r18,lo8(-(1))
 235 0090 3F4F      		sbci r19,hi8(-(1))
 236               	/* #APP */
 237               	 ;  1298 "stk500boot.c" 1
 238 0092 ABBF      		out 59, r26
 239 0094 FC01      		movw r30, r24
 240 0096 8791      		elpm r24, Z+
 241               		
 242               	 ;  0 "" 2
 243               	.LVL13:
 244               	/* #NOAPP */
 245               	.LBE531:
 246               	.LM24:
 247 0098 8823      		tst r24
 248 009a 01F0      		breq .L20
 249               	.LBB532:
 250               	.LBB533:
 251               	.LM25:
 252 009c 8093 C600 		sts 198,r24
 253               	.L21:
 254               	.LM26:
 255 00a0 8091 C000 		lds r24,192
 256               	.LVL14:
 257 00a4 86FF      		sbrs r24,6
 258 00a6 00C0      		rjmp .L21
 259               	.LM27:
 260 00a8 8091 C000 		lds r24,192
 261 00ac 8064      		ori r24,lo8(64)
 262 00ae 8093 C000 		sts 192,r24
 263 00b2 00C0      		rjmp .L22
 264               	.LVL15:
 265               	.L20:
 266               	.LBE533:
 267               	.LBE532:
 268               	.LBE530:
 269               	.LBE529:
 270               	.LBB534:
 271               	.LBB535:
 272               	.LBB536:
 273               	.LBB537:
 274               	.LM28:
 275 00b4 8DE0      		ldi r24,lo8(13)
 276               	.LVL16:
 277 00b6 8093 C600 		sts 198,r24
 278               	.L23:
 279               	.LM29:
 280 00ba 8091 C000 		lds r24,192
 281 00be 86FF      		sbrs r24,6
 282 00c0 00C0      		rjmp .L23
 283               	.LM30:
 284 00c2 8091 C000 		lds r24,192
 285 00c6 8064      		ori r24,lo8(64)
 286 00c8 8093 C000 		sts 192,r24
 287               	.LBE537:
 288               	.LBE536:
 289               	.LBB538:
 290               	.LBB539:
 291               	.LM31:
 292 00cc 8AE0      		ldi r24,lo8(10)
 293 00ce 8093 C600 		sts 198,r24
 294               	.L24:
 295               	.LM32:
 296 00d2 8091 C000 		lds r24,192
 297 00d6 86FF      		sbrs r24,6
 298 00d8 00C0      		rjmp .L24
 299               	.LM33:
 300 00da 8091 C000 		lds r24,192
 301 00de 8064      		ori r24,lo8(64)
 302 00e0 8093 C000 		sts 192,r24
 303               	/* epilogue start */
 304               	.LBE539:
 305               	.LBE538:
 306               	.LBE535:
 307               	.LBE534:
 308               	.LM34:
 309 00e4 0895      		ret
 310               	.LFE25:
 312               	.global	PrintString
 314               	PrintString:
 315               	.LFB26:
 316               	.LM35:
 317               	.LVL17:
 318               	/* prologue: function */
 319               	/* frame size = 0 */
 320               	.LM36:
 321 00e6 FC01      		movw r30,r24
 322               	.LVL18:
 323               	.L32:
 324               	.LM37:
 325 00e8 9081      		ld r25,Z
 326               	.LM38:
 327 00ea 9923      		tst r25
 328 00ec 01F0      		breq .L30
 329               	.LBB540:
 330               	.LBB541:
 331               	.LM39:
 332 00ee 9093 C600 		sts 198,r25
 333               	.L31:
 334               	.LM40:
 335 00f2 8091 C000 		lds r24,192
 336 00f6 86FF      		sbrs r24,6
 337 00f8 00C0      		rjmp .L31
 338               	.LM41:
 339 00fa 8091 C000 		lds r24,192
 340 00fe 8064      		ori r24,lo8(64)
 341 0100 8093 C000 		sts 192,r24
 342               	.L30:
 343 0104 3196      		adiw r30,1
 344               	.LBE541:
 345               	.LBE540:
 346               	.LM42:
 347 0106 9923      		tst r25
 348 0108 01F4      		brne .L32
 349               	/* epilogue start */
 350               	.LM43:
 351 010a 0895      		ret
 352               	.LFE26:
 354               	.global	PrintHexByte
 356               	PrintHexByte:
 357               	.LFB27:
 358               	.LM44:
 359               	.LVL19:
 360               	/* prologue: function */
 361               	/* frame size = 0 */
 362 010c 282F      		mov r18,r24
 363               	.LM45:
 364 010e 982F      		mov r25,r24
 365 0110 9295      		swap r25
 366 0112 9F70      		andi r25,lo8(15)
 367 0114 892F      		mov r24,r25
 368               	.LVL20:
 369 0116 805D      		subi r24,lo8(-(48))
 370               	.LM46:
 371 0118 8A33      		cpi r24,lo8(58)
 372 011a 00F0      		brlo .L37
 373               	.LM47:
 374 011c 895F      		subi r24,lo8(-(7))
 375               	.L37:
 376               	.LBB542:
 377               	.LBB543:
 378               	.LM48:
 379 011e 8093 C600 		sts 198,r24
 380               	.L38:
 381               	.LM49:
 382 0122 8091 C000 		lds r24,192
 383               	.LVL21:
 384 0126 86FF      		sbrs r24,6
 385 0128 00C0      		rjmp .L38
 386               	.LM50:
 387 012a 8091 C000 		lds r24,192
 388 012e 8064      		ori r24,lo8(64)
 389 0130 8093 C000 		sts 192,r24
 390               	.LBE543:
 391               	.LBE542:
 392               	.LM51:
 393 0134 822F      		mov r24,r18
 394 0136 8F70      		andi r24,lo8(15)
 395 0138 982F      		mov r25,r24
 396               	.LVL22:
 397 013a 905D      		subi r25,lo8(-(48))
 398               	.LM52:
 399 013c 9A33      		cpi r25,lo8(58)
 400 013e 00F0      		brlo .L39
 401               	.LM53:
 402 0140 995F      		subi r25,lo8(-(7))
 403               	.L39:
 404               	.LBB544:
 405               	.LBB545:
 406               	.LM54:
 407 0142 9093 C600 		sts 198,r25
 408               	.L40:
 409               	.LM55:
 410 0146 8091 C000 		lds r24,192
 411 014a 86FF      		sbrs r24,6
 412 014c 00C0      		rjmp .L40
 413               	.LM56:
 414 014e 8091 C000 		lds r24,192
 415 0152 8064      		ori r24,lo8(64)
 416 0154 8093 C000 		sts 192,r24
 417               	/* epilogue start */
 418               	.LBE545:
 419               	.LBE544:
 420               	.LM57:
 421 0158 0895      		ret
 422               	.LFE27:
 424               	.global	PrintDecInt
 426               	PrintDecInt:
 427               	.LFB28:
 428               	.LM58:
 429               	.LVL23:
 430               	/* prologue: function */
 431               	/* frame size = 0 */
 432 015a 9C01      		movw r18,r24
 433 015c FB01      		movw r30,r22
 434               	.LM59:
 435 015e 8536      		cpi r24,101
 436 0160 9105      		cpc r25,__zero_reg__
 437 0162 04F4      		brge .L45
 438               	.LVL24:
 439 0164 6330      		cpi r22,3
 440 0166 7105      		cpc r23,__zero_reg__
 441 0168 04F0      		brlt .L46
 442               	.L45:
 443               	.LM60:
 444 016a C901      		movw r24,r18
 445               	.LVL25:
 446 016c 64E6      		ldi r22,lo8(100)
 447 016e 70E0      		ldi r23,hi8(100)
 448 0170 0E94 0000 		call __divmodhi4
 449 0174 605D      		subi r22,lo8(-(48))
 450 0176 7F4F      		sbci r23,hi8(-(48))
 451               	.LBB546:
 452               	.LBB547:
 453               	.LM61:
 454 0178 6093 C600 		sts 198,r22
 455               	.L47:
 456               	.LM62:
 457 017c 8091 C000 		lds r24,192
 458 0180 86FF      		sbrs r24,6
 459 0182 00C0      		rjmp .L47
 460               	.LM63:
 461 0184 8091 C000 		lds r24,192
 462 0188 8064      		ori r24,lo8(64)
 463 018a 8093 C000 		sts 192,r24
 464               	.LVL26:
 465               	.L46:
 466               	.LBE547:
 467               	.LBE546:
 468               	.LM64:
 469 018e 2B30      		cpi r18,11
 470 0190 3105      		cpc r19,__zero_reg__
 471 0192 04F4      		brge .L48
 472 0194 3297      		sbiw r30,2
 473 0196 04F0      		brlt .L49
 474               	.L48:
 475               	.LM65:
 476 0198 C901      		movw r24,r18
 477 019a 64E6      		ldi r22,lo8(100)
 478 019c 70E0      		ldi r23,hi8(100)
 479 019e 0E94 0000 		call __divmodhi4
 480 01a2 6AE0      		ldi r22,lo8(10)
 481 01a4 70E0      		ldi r23,hi8(10)
 482 01a6 0E94 0000 		call __divmodhi4
 483 01aa 605D      		subi r22,lo8(-(48))
 484 01ac 7F4F      		sbci r23,hi8(-(48))
 485               	.LBB548:
 486               	.LBB549:
 487               	.LM66:
 488 01ae 6093 C600 		sts 198,r22
 489               	.L50:
 490               	.LM67:
 491 01b2 8091 C000 		lds r24,192
 492 01b6 86FF      		sbrs r24,6
 493 01b8 00C0      		rjmp .L50
 494               	.LM68:
 495 01ba 8091 C000 		lds r24,192
 496 01be 8064      		ori r24,lo8(64)
 497 01c0 8093 C000 		sts 192,r24
 498               	.LVL27:
 499               	.L49:
 500               	.LBE549:
 501               	.LBE548:
 502               	.LM69:
 503 01c4 C901      		movw r24,r18
 504 01c6 6AE0      		ldi r22,lo8(10)
 505 01c8 70E0      		ldi r23,hi8(10)
 506 01ca 0E94 0000 		call __divmodhi4
 507 01ce C096      		adiw r24,48
 508               	.LBB550:
 509               	.LBB551:
 510               	.LM70:
 511 01d0 8093 C600 		sts 198,r24
 512               	.L51:
 513               	.LM71:
 514 01d4 8091 C000 		lds r24,192
 515 01d8 86FF      		sbrs r24,6
 516 01da 00C0      		rjmp .L51
 517               	.LM72:
 518 01dc 8091 C000 		lds r24,192
 519 01e0 8064      		ori r24,lo8(64)
 520 01e2 8093 C000 		sts 192,r24
 521               	/* epilogue start */
 522               	.LBE551:
 523               	.LBE550:
 524               	.LM73:
 525 01e6 0895      		ret
 526               	.LFE28:
 529               	DumpHex:
 530               	.LFB31:
 531               	.LM74:
 532               	.LVL28:
 533 01e8 2F92      		push r2
 534 01ea 3F92      		push r3
 535 01ec 4F92      		push r4
 536 01ee 5F92      		push r5
 537 01f0 6F92      		push r6
 538 01f2 7F92      		push r7
 539 01f4 8F92      		push r8
 540 01f6 9F92      		push r9
 541 01f8 AF92      		push r10
 542 01fa BF92      		push r11
 543 01fc CF92      		push r12
 544 01fe DF92      		push r13
 545 0200 EF92      		push r14
 546 0202 FF92      		push r15
 547 0204 0F93      		push r16
 548 0206 1F93      		push r17
 549 0208 DF93      		push r29
 550 020a CF93      		push r28
 551 020c CDB7      		in r28,__SP_L__
 552 020e DEB7      		in r29,__SP_H__
 553 0210 6297      		sbiw r28,18
 554 0212 0FB6      		in __tmp_reg__,__SREG__
 555 0214 F894      		cli
 556 0216 DEBF      		out __SP_H__,r29
 557 0218 0FBE      		out __SREG__,__tmp_reg__
 558 021a CDBF      		out __SP_L__,r28
 559               	/* prologue: function */
 560               	/* frame size = 18 */
 561 021c 382E      		mov r3,r24
 562 021e 622E      		mov r6,r18
 563               	.LM75:
 564 0220 CA01      		movw r24,r20
 565               	.LVL29:
 566 0222 DB01      		movw r26,r22
 567 0224 5C01      		movw r10,r24
 568 0226 6D01      		movw r12,r26
 569               	.LVL30:
 570 0228 7724      		clr r7
 571               	.LVL31:
 572               	.LBB552:
 573               	.LBB553:
 574               	.LM76:
 575 022a 20E2      		ldi r18,lo8(32)
 576 022c 222E      		mov r2,r18
 577               	.LVL32:
 578 022e 2E01      		movw r4,r28
 579 0230 0894      		sec
 580 0232 411C      		adc r4,__zero_reg__
 581 0234 511C      		adc r5,__zero_reg__
 582 0236 00C0      		rjmp .L57
 583               	.LVL33:
 584               	.L75:
 585               	.LBE553:
 586               	.LBE552:
 587               	.LM77:
 588 0238 81E0      		ldi r24,lo8(65537)
 589 023a A816      		cp r10,r24
 590 023c 80E0      		ldi r24,hi8(65537)
 591 023e B806      		cpc r11,r24
 592 0240 81E0      		ldi r24,hlo8(65537)
 593 0242 C806      		cpc r12,r24
 594 0244 80E0      		ldi r24,hhi8(65537)
 595 0246 D806      		cpc r13,r24
 596 0248 00F0      		brlo .L58
 597               	.LM78:
 598 024a C601      		movw r24,r12
 599 024c AA27      		clr r26
 600 024e BB27      		clr r27
 601 0250 0E94 0000 		call PrintHexByte
 602               	.L58:
 603               	.LM79:
 604 0254 BB27      		clr r27
 605 0256 AD2D      		mov r26,r13
 606 0258 9C2D      		mov r25,r12
 607 025a 8B2D      		mov r24,r11
 608 025c 0E94 0000 		call PrintHexByte
 609               	.LM80:
 610 0260 8A2D      		mov r24,r10
 611 0262 0E94 0000 		call PrintHexByte
 612               	.LBB555:
 613               	.LBB554:
 614               	.LM81:
 615 0266 2092 C600 		sts 198,r2
 616               	.L59:
 617               	.LM82:
 618 026a 8091 C000 		lds r24,192
 619 026e 86FF      		sbrs r24,6
 620 0270 00C0      		rjmp .L59
 621               	.LM83:
 622 0272 8091 C000 		lds r24,192
 623 0276 8064      		ori r24,lo8(64)
 624 0278 8093 C000 		sts 192,r24
 625               	.LBE554:
 626               	.LBE555:
 627               	.LBB556:
 628               	.LBB557:
 629               	.LM84:
 630 027c 9DE2      		ldi r25,lo8(45)
 631 027e 9093 C600 		sts 198,r25
 632               	.L60:
 633               	.LM85:
 634 0282 8091 C000 		lds r24,192
 635 0286 86FF      		sbrs r24,6
 636 0288 00C0      		rjmp .L60
 637               	.LM86:
 638 028a 8091 C000 		lds r24,192
 639 028e 8064      		ori r24,lo8(64)
 640 0290 8093 C000 		sts 192,r24
 641               	.LBE557:
 642               	.LBE556:
 643               	.LBB558:
 644               	.LBB559:
 645               	.LM87:
 646 0294 2092 C600 		sts 198,r2
 647               	.L61:
 648               	.LM88:
 649 0298 8091 C000 		lds r24,192
 650 029c 86FF      		sbrs r24,6
 651 029e 00C0      		rjmp .L61
 652               	.LM89:
 653 02a0 8091 C000 		lds r24,192
 654 02a4 8064      		ori r24,lo8(64)
 655 02a6 8093 C000 		sts 192,r24
 656               	.LBE559:
 657               	.LBE558:
 658               	.LM90:
 659 02aa 1982      		std Y+1,__zero_reg__
 660 02ac 8601      		movw r16,r12
 661 02ae 7501      		movw r14,r10
 662 02b0 8824      		clr r8
 663 02b2 9924      		clr r9
 664               	.LVL34:
 665               	.L69:
 666               	.LM91:
 667 02b4 A1E0      		ldi r26,lo8(1)
 668 02b6 3A16      		cp r3,r26
 669 02b8 01F0      		breq .L77
 670 02ba 3A16      		cp r3,r26
 671 02bc 00F0      		brlo .L63
 672 02be B2E0      		ldi r27,lo8(2)
 673 02c0 3B16      		cp r3,r27
 674 02c2 01F4      		brne .L62
 675 02c4 00C0      		rjmp .L88
 676               	.L63:
 677               	.LBB560:
 678               	.LM92:
 679               	/* #APP */
 680               	 ;  1507 "stk500boot.c" 1
 681 02c6 0BBF      		out 59, r16
 682 02c8 F701      		movw r30, r14
 683 02ca 7790      		elpm r7, Z+
 684               		
 685               	 ;  0 "" 2
 686               	/* #NOAPP */
 687 02cc 00C0      		rjmp .L62
 688               	.L77:
 689               	.LBE560:
 690               	.LBB561:
 691               	.LBB562:
 692               	.LM93:
 693 02ce F999      		sbic 63-32,1
 694 02d0 00C0      		rjmp .L77
 695               	.LM94:
 696 02d2 F2BC      		out (65)+1-32,r15
 697 02d4 E1BC      		out 65-32,r14
 698               	.LM95:
 699               	/* #APP */
 700               	 ;  208 "/Applications/Arduino.app/Contents/Resources/Java/hardware/tools/avr/bin/../lib/gcc/avr/4.
 701               		/* START EEPROM READ CRITICAL SECTION */ 
 702 02d6 F89A      		sbi 31, 0 
 703 02d8 70B4      		in r7, 32 
 704               		/* END EEPROM READ CRITICAL SECTION */ 
 705               		
 706               	 ;  0 "" 2
 707               	/* #NOAPP */
 708 02da 00C0      		rjmp .L62
 709               	.L88:
 710               	.LBE562:
 711               	.LBE561:
 712               	.LM96:
 713 02dc F701      		movw r30,r14
 714               	.LVL35:
 715 02de 7080      		ld r7,Z
 716               	.LVL36:
 717               	.L62:
 718               	.LM97:
 719 02e0 872D      		mov r24,r7
 720 02e2 0E94 0000 		call PrintHexByte
 721               	.LBB563:
 722               	.LBB564:
 723               	.LM98:
 724 02e6 2092 C600 		sts 198,r2
 725               	.L66:
 726               	.LM99:
 727 02ea 8091 C000 		lds r24,192
 728 02ee 86FF      		sbrs r24,6
 729 02f0 00C0      		rjmp .L66
 730               	.LM100:
 731 02f2 8091 C000 		lds r24,192
 732 02f6 8064      		ori r24,lo8(64)
 733 02f8 8093 C000 		sts 192,r24
 734               	.LBE564:
 735               	.LBE563:
 736               	.LM101:
 737 02fc 872D      		mov r24,r7
 738 02fe 8052      		subi r24,lo8(-(-32))
 739 0300 F401      		movw r30,r8
 740 0302 EF70      		andi r30,lo8(15)
 741 0304 F070      		andi r31,hi8(15)
 742 0306 8F35      		cpi r24,lo8(95)
 743 0308 00F4      		brsh .L67
 744               	.LM102:
 745 030a E40D      		add r30,r4
 746 030c F51D      		adc r31,r5
 747 030e 7082      		st Z,r7
 748 0310 00C0      		rjmp .L68
 749               	.L67:
 750               	.LM103:
 751 0312 E40D      		add r30,r4
 752 0314 F51D      		adc r31,r5
 753 0316 8EE2      		ldi r24,lo8(46)
 754 0318 8083      		st Z,r24
 755               	.L68:
 756               	.LM104:
 757 031a 0894      		sec
 758 031c E11C      		adc r14,__zero_reg__
 759 031e F11C      		adc r15,__zero_reg__
 760 0320 011D      		adc r16,__zero_reg__
 761 0322 111D      		adc r17,__zero_reg__
 762               	.LVL37:
 763 0324 0894      		sec
 764 0326 811C      		adc r8,__zero_reg__
 765 0328 911C      		adc r9,__zero_reg__
 766               	.LM105:
 767 032a 90E1      		ldi r25,lo8(16)
 768 032c 8916      		cp r8,r25
 769 032e 9104      		cpc r9,__zero_reg__
 770 0330 01F0      		breq .+2
 771 0332 00C0      		rjmp .L69
 772 0334 80E1      		ldi r24,lo8(16)
 773 0336 90E0      		ldi r25,hi8(16)
 774 0338 A0E0      		ldi r26,hlo8(16)
 775 033a B0E0      		ldi r27,hhi8(16)
 776 033c A80E      		add r10,r24
 777 033e B91E      		adc r11,r25
 778 0340 CA1E      		adc r12,r26
 779 0342 DB1E      		adc r13,r27
 780               	.LVL38:
 781               	.LM106:
 782 0344 198A      		std Y+17,__zero_reg__
 783 0346 F201      		movw r30,r4
 784               	.LVL39:
 785               	.L72:
 786               	.LBB565:
 787               	.LBB566:
 788               	.LM107:
 789 0348 9081      		ld r25,Z
 790               	.LM108:
 791 034a 9923      		tst r25
 792 034c 01F0      		breq .L70
 793               	.LBB567:
 794               	.LBB568:
 795               	.LM109:
 796 034e 9093 C600 		sts 198,r25
 797               	.L71:
 798               	.LM110:
 799 0352 8091 C000 		lds r24,192
 800 0356 86FF      		sbrs r24,6
 801 0358 00C0      		rjmp .L71
 802               	.LM111:
 803 035a 8091 C000 		lds r24,192
 804 035e 8064      		ori r24,lo8(64)
 805 0360 8093 C000 		sts 192,r24
 806               	.L70:
 807 0364 3196      		adiw r30,1
 808               	.LBE568:
 809               	.LBE567:
 810               	.LM112:
 811 0366 9923      		tst r25
 812 0368 01F4      		brne .L72
 813               	.LBE566:
 814               	.LBE565:
 815               	.LBB569:
 816               	.LBB570:
 817               	.LBB571:
 818               	.LBB572:
 819               	.LM113:
 820 036a 9DE0      		ldi r25,lo8(13)
 821               	.LVL40:
 822 036c 9093 C600 		sts 198,r25
 823               	.L73:
 824               	.LM114:
 825 0370 8091 C000 		lds r24,192
 826 0374 86FF      		sbrs r24,6
 827 0376 00C0      		rjmp .L73
 828               	.LM115:
 829 0378 8091 C000 		lds r24,192
 830 037c 8064      		ori r24,lo8(64)
 831 037e 8093 C000 		sts 192,r24
 832               	.LBE572:
 833               	.LBE571:
 834               	.LBB573:
 835               	.LBB574:
 836               	.LM116:
 837 0382 AAE0      		ldi r26,lo8(10)
 838 0384 A093 C600 		sts 198,r26
 839               	.L74:
 840               	.LM117:
 841 0388 8091 C000 		lds r24,192
 842 038c 86FF      		sbrs r24,6
 843 038e 00C0      		rjmp .L74
 844               	.LM118:
 845 0390 8091 C000 		lds r24,192
 846 0394 8064      		ori r24,lo8(64)
 847 0396 8093 C000 		sts 192,r24
 848               	.LBE574:
 849               	.LBE573:
 850               	.LBE570:
 851               	.LBE569:
 852               	.LM119:
 853 039a 6A94      		dec r6
 854               	.LVL41:
 855               	.L57:
 856               	.LM120:
 857 039c 6620      		tst r6
 858 039e 01F0      		breq .+2
 859 03a0 00C0      		rjmp .L75
 860               	/* epilogue start */
 861               	.LM121:
 862 03a2 6296      		adiw r28,18
 863 03a4 0FB6      		in __tmp_reg__,__SREG__
 864 03a6 F894      		cli
 865 03a8 DEBF      		out __SP_H__,r29
 866 03aa 0FBE      		out __SREG__,__tmp_reg__
 867 03ac CDBF      		out __SP_L__,r28
 868 03ae CF91      		pop r28
 869 03b0 DF91      		pop r29
 870 03b2 1F91      		pop r17
 871 03b4 0F91      		pop r16
 872 03b6 FF90      		pop r15
 873 03b8 EF90      		pop r14
 874 03ba DF90      		pop r13
 875 03bc CF90      		pop r12
 876 03be BF90      		pop r11
 877 03c0 AF90      		pop r10
 878               	.LVL42:
 879 03c2 9F90      		pop r9
 880 03c4 8F90      		pop r8
 881 03c6 7F90      		pop r7
 882               	.LVL43:
 883 03c8 6F90      		pop r6
 884               	.LVL44:
 885 03ca 5F90      		pop r5
 886 03cc 4F90      		pop r4
 887 03ce 3F90      		pop r3
 888               	.LVL45:
 889 03d0 2F90      		pop r2
 890 03d2 0895      		ret
 891               	.LFE31:
 894               	PrintAvailablePort:
 895               	.LFB34:
 896               	.LM122:
 897               	.LVL46:
 898               	/* prologue: function */
 899               	/* frame size = 0 */
 900 03d4 482F      		mov r20,r24
 901               	.LM123:
 902 03d6 20E0      		ldi r18,lo8(gTextMsg_PORT)
 903 03d8 30E0      		ldi r19,hi8(gTextMsg_PORT)
 904               	.LVL47:
 905               	.L92:
 906               	.LBB575:
 907               	.LBB576:
 908               	.LBB577:
 909               	.LM124:
 910 03da C901      		movw r24,r18
 911               	.LVL48:
 912 03dc A0E0      		ldi r26,lo8(0)
 913 03de B0E0      		ldi r27,hi8(0)
 914 03e0 2F5F      		subi r18,lo8(-(1))
 915 03e2 3F4F      		sbci r19,hi8(-(1))
 916               	/* #APP */
 917               	 ;  1298 "stk500boot.c" 1
 918 03e4 ABBF      		out 59, r26
 919 03e6 FC01      		movw r30, r24
 920 03e8 8791      		elpm r24, Z+
 921               		
 922               	 ;  0 "" 2
 923               	.LVL49:
 924               	/* #NOAPP */
 925               	.LBE577:
 926               	.LM125:
 927 03ea 8823      		tst r24
 928 03ec 01F0      		breq .L90
 929               	.LBB578:
 930               	.LBB579:
 931               	.LM126:
 932 03ee 8093 C600 		sts 198,r24
 933               	.L91:
 934               	.LM127:
 935 03f2 8091 C000 		lds r24,192
 936               	.LVL50:
 937 03f6 86FF      		sbrs r24,6
 938 03f8 00C0      		rjmp .L91
 939               	.LM128:
 940 03fa 8091 C000 		lds r24,192
 941 03fe 8064      		ori r24,lo8(64)
 942 0400 8093 C000 		sts 192,r24
 943 0404 00C0      		rjmp .L92
 944               	.LVL51:
 945               	.L90:
 946               	.LBE579:
 947               	.LBE578:
 948               	.LBE576:
 949               	.LBE575:
 950               	.LBB580:
 951               	.LBB581:
 952               	.LM129:
 953 0406 4093 C600 		sts 198,r20
 954               	.L93:
 955               	.LM130:
 956 040a 8091 C000 		lds r24,192
 957               	.LVL52:
 958 040e 86FF      		sbrs r24,6
 959 0410 00C0      		rjmp .L93
 960               	.LM131:
 961 0412 8091 C000 		lds r24,192
 962 0416 8064      		ori r24,lo8(64)
 963 0418 8093 C000 		sts 192,r24
 964               	.LBE581:
 965               	.LBE580:
 966               	.LBB582:
 967               	.LBB583:
 968               	.LBB584:
 969               	.LBB585:
 970               	.LM132:
 971 041c 8DE0      		ldi r24,lo8(13)
 972 041e 8093 C600 		sts 198,r24
 973               	.L94:
 974               	.LM133:
 975 0422 8091 C000 		lds r24,192
 976 0426 86FF      		sbrs r24,6
 977 0428 00C0      		rjmp .L94
 978               	.LM134:
 979 042a 8091 C000 		lds r24,192
 980 042e 8064      		ori r24,lo8(64)
 981 0430 8093 C000 		sts 192,r24
 982               	.LBE585:
 983               	.LBE584:
 984               	.LBB586:
 985               	.LBB587:
 986               	.LM135:
 987 0434 8AE0      		ldi r24,lo8(10)
 988 0436 8093 C600 		sts 198,r24
 989               	.L95:
 990               	.LM136:
 991 043a 8091 C000 		lds r24,192
 992 043e 86FF      		sbrs r24,6
 993 0440 00C0      		rjmp .L95
 994               	.LM137:
 995 0442 8091 C000 		lds r24,192
 996 0446 8064      		ori r24,lo8(64)
 997 0448 8093 C000 		sts 192,r24
 998               	/* epilogue start */
 999               	.LBE587:
 1000               	.LBE586:
 1001               	.LBE583:
 1002               	.LBE582:
 1003               	.LM138:
 1004 044c 0895      		ret
 1005               	.LFE34:
 1007               	.global	main
 1009               	main:
 1010               	.LFB20:
 1011               	.LM139:
 1012 044e 2F92      		push r2
 1013 0450 3F92      		push r3
 1014 0452 4F92      		push r4
 1015 0454 5F92      		push r5
 1016 0456 6F92      		push r6
 1017 0458 7F92      		push r7
 1018 045a 8F92      		push r8
 1019 045c 9F92      		push r9
 1020 045e AF92      		push r10
 1021 0460 BF92      		push r11
 1022 0462 CF92      		push r12
 1023 0464 DF92      		push r13
 1024 0466 EF92      		push r14
 1025 0468 FF92      		push r15
 1026 046a 0F93      		push r16
 1027 046c 1F93      		push r17
 1028 046e DF93      		push r29
 1029 0470 CF93      		push r28
 1030 0472 CDB7      		in r28,__SP_L__
 1031 0474 DEB7      		in r29,__SP_H__
 1032 0476 CD53      		subi r28,lo8(-(-317))
 1033 0478 D140      		sbci r29,hi8(-(-317))
 1034 047a 0FB6      		in __tmp_reg__,__SREG__
 1035 047c F894      		cli
 1036 047e DEBF      		out __SP_H__,r29
 1037 0480 0FBE      		out __SREG__,__tmp_reg__
 1038 0482 CDBF      		out __SP_L__,r28
 1039               	/* prologue: function */
 1040               	/* frame size = 317 */
 1041               	.LM140:
 1042               	/* #APP */
 1043               	 ;  554 "stk500boot.c" 1
 1044               		.set __stack, 8703
 1045               	 ;  0 "" 2
 1046               	.LM141:
 1047               	 ;  555 "stk500boot.c" 1
 1048 0484 01E2      		ldi	16, 33
 1049               	 ;  0 "" 2
 1050               	.LM142:
 1051               	 ;  556 "stk500boot.c" 1
 1052 0486 0EBF      		out 62,16
 1053               	 ;  0 "" 2
 1054               	.LM143:
 1055               	 ;  557 "stk500boot.c" 1
 1056 0488 0FEF      		ldi	16, 255
 1057               	 ;  0 "" 2
 1058               	.LM144:
 1059               	 ;  558 "stk500boot.c" 1
 1060 048a 0DBF      		out 61,16
 1061               	 ;  0 "" 2
 1062               	.LM145:
 1063               	/* #NOAPP */
 1064 048c 94B7      		in r25,84-32
 1065               	.LVL53:
 1066               	.LM146:
 1067               	/* #APP */
 1068               	 ;  567 "stk500boot.c" 1
 1069 048e F894      		cli
 1070               	 ;  0 "" 2
 1071               	.LM147:
 1072               	 ;  568 "stk500boot.c" 1
 1073 0490 A895      		wdr
 1074               	 ;  0 "" 2
 1075               	.LM148:
 1076               	/* #NOAPP */
 1077 0492 14BE      		out 84-32,__zero_reg__
 1078               	.LM149:
 1079 0494 8091 6000 		lds r24,96
 1080 0498 8861      		ori r24,lo8(24)
 1081 049a 8093 6000 		sts 96,r24
 1082               	.LM150:
 1083 049e 1092 6000 		sts 96,__zero_reg__
 1084               	.LM151:
 1085               	/* #APP */
 1086               	 ;  572 "stk500boot.c" 1
 1087 04a2 7894      		sei
 1088               	 ;  0 "" 2
 1089               	.LM152:
 1090               	/* #NOAPP */
 1091 04a4 93FF      		sbrs r25,3
 1092 04a6 00C0      		rjmp .L102
 1093               	.LM153:
 1094 04a8 E091 0000 		lds r30,app_start
 1095 04ac F091 0000 		lds r31,(app_start)+1
 1096 04b0 0995      		icall
 1097               	.LVL54:
 1098               	.L102:
 1099               	.LM154:
 1100 04b2 279A      		sbi 36-32,7
 1101               	.LM155:
 1102 04b4 2F9A      		sbi 37-32,7
 1103               	.LM156:
 1104 04b6 8091 C000 		lds r24,192
 1105 04ba 8260      		ori r24,lo8(2)
 1106 04bc 8093 C000 		sts 192,r24
 1107               	.LM157:
 1108 04c0 80E1      		ldi r24,lo8(16)
 1109 04c2 8093 C400 		sts 196,r24
 1110               	.LM158:
 1111 04c6 88E1      		ldi r24,lo8(24)
 1112 04c8 8093 C100 		sts 193,r24
 1113               	.LM159:
 1114               	/* #APP */
 1115               	 ;  623 "stk500boot.c" 1
 1116 04cc 0000      		nop
 1117               	 ;  0 "" 2
 1118               	/* #NOAPP */
 1119 04ce EE24      		clr r14
 1120 04d0 FF24      		clr r15
 1121 04d2 8701      		movw r16,r14
 1122               	.LVL55:
 1123               	.LBB1025:
 1124               	.LBB1026:
 1125               	.LBB1027:
 1126               	.LBB1028:
 1127               	.LM160:
 1128 04d4 84E0      		ldi r24,lo8(4)
 1129 04d6 A82E      		mov r10,r24
 1130 04d8 B12C      		mov r11,__zero_reg__
 1131               	.LBE1028:
 1132               	.LBE1027:
 1133               	.LBE1026:
 1134               	.LBE1025:
 1135               	.LM161:
 1136 04da CC24      		clr r12
 1137 04dc DD24      		clr r13
 1138               	.LVL56:
 1139 04de 00C0      		rjmp .L510
 1140               	.L107:
 1141               	.LBB1032:
 1142               	.LBB1031:
 1143               	.LBB1030:
 1144               	.LBB1029:
 1145               	.LM162:
 1146 04e0 C501      		movw r24,r10
 1147               	.LVL57:
 1148               	/* #APP */
 1149               	 ;  105 "/Applications/Arduino.app/Contents/Resources/Java/hardware/tools/avr/bin/../lib/gcc/avr/4.
 1150 04e2 0197      		1: sbiw r24,1
 1151 04e4 01F4      		brne 1b
 1152               	 ;  0 "" 2
 1153               	/* #NOAPP */
 1154               	.LBE1029:
 1155               	.LBE1030:
 1156               	.LBE1031:
 1157               	.LBE1032:
 1158               	.LM163:
 1159 04e6 0894      		sec
 1160 04e8 E11C      		adc r14,__zero_reg__
 1161 04ea F11C      		adc r15,__zero_reg__
 1162 04ec 011D      		adc r16,__zero_reg__
 1163 04ee 111D      		adc r17,__zero_reg__
 1164 04f0 21E2      		ldi r18,lo8(20001)
 1165 04f2 E216      		cp r14,r18
 1166 04f4 2EE4      		ldi r18,hi8(20001)
 1167 04f6 F206      		cpc r15,r18
 1168 04f8 20E0      		ldi r18,hlo8(20001)
 1169 04fa 0207      		cpc r16,r18
 1170 04fc 20E0      		ldi r18,hhi8(20001)
 1171 04fe 1207      		cpc r17,r18
 1172 0500 00F0      		brlo .L104
 1173 0502 B1E0      		ldi r27,lo8(1)
 1174 0504 CB2E      		mov r12,r27
 1175 0506 D12C      		mov r13,__zero_reg__
 1176               	.L104:
 1177               	.LM164:
 1178 0508 C801      		movw r24,r16
 1179 050a B701      		movw r22,r14
 1180 050c 27EC      		ldi r18,lo8(7111)
 1181 050e 3BE1      		ldi r19,hi8(7111)
 1182 0510 40E0      		ldi r20,hlo8(7111)
 1183 0512 50E0      		ldi r21,hhi8(7111)
 1184 0514 0E94 0000 		call __udivmodsi4
 1185 0518 6115      		cp r22,__zero_reg__
 1186 051a 7105      		cpc r23,__zero_reg__
 1187 051c 8105      		cpc r24,__zero_reg__
 1188 051e 9105      		cpc r25,__zero_reg__
 1189 0520 01F4      		brne .L510
 1190               	.LM165:
 1191 0522 85B1      		in r24,37-32
 1192               	.LVL58:
 1193 0524 8058      		subi r24,lo8(-(-128))
 1194 0526 85B9      		out 37-32,r24
 1195               	.LVL59:
 1196               	.L510:
 1197               	.LBB1033:
 1198               	.LBB1034:
 1199               	.LM166:
 1200 0528 8091 C000 		lds r24,192
 1201               	.LVL60:
 1202               	.LBE1034:
 1203               	.LBE1033:
 1204               	.LM167:
 1205 052c 87FD      		sbrc r24,7
 1206 052e 00C0      		rjmp .L106
 1207 0530 C114      		cp r12,__zero_reg__
 1208 0532 D104      		cpc r13,__zero_reg__
 1209 0534 01F0      		breq .L107
 1210               	.L106:
 1211               	.LM168:
 1212 0536 A601      		movw r20,r12
 1213 0538 4F5F      		subi r20,lo8(-(1))
 1214 053a 5F4F      		sbci r21,hi8(-(1))
 1215 053c C25E      		subi r28,lo8(-286)
 1216 053e DE4F      		sbci r29,hi8(-286)
 1217 0540 5983      		std Y+1,r21
 1218 0542 4883      		st Y,r20
 1219 0544 CE51      		subi r28,lo8(286)
 1220 0546 D140      		sbci r29,hi8(286)
 1221               	.LVL61:
 1222               	.LM169:
 1223 0548 C25E      		subi r28,lo8(-286)
 1224 054a DE4F      		sbci r29,hi8(-286)
 1225 054c 8881      		ld r24,Y
 1226 054e 9981      		ldd r25,Y+1
 1227 0550 CE51      		subi r28,lo8(286)
 1228 0552 D140      		sbci r29,hi8(286)
 1229 0554 0197      		sbiw r24,1
 1230 0556 01F0      		breq .+4
 1231 0558 0C94 0000 		jmp .L109
 1232 055c C05D      		subi r28,lo8(-304)
 1233 055e DE4F      		sbci r29,hi8(-304)
 1234 0560 1982      		std Y+1,__zero_reg__
 1235 0562 1882      		st Y,__zero_reg__
 1236 0564 C053      		subi r28,lo8(304)
 1237 0566 D140      		sbci r29,hi8(304)
 1238               	.LVL62:
 1239 0568 60E0      		ldi r22,lo8(0)
 1240               	.LVL63:
 1241 056a C15D      		subi r28,lo8(-303)
 1242 056c DE4F      		sbci r29,hi8(-303)
 1243 056e 1882      		st Y,__zero_reg__
 1244 0570 CF52      		subi r28,lo8(303)
 1245 0572 D140      		sbci r29,hi8(303)
 1246               	.LVL64:
 1247 0574 AA24      		clr r10
 1248 0576 BB24      		clr r11
 1249               	.LVL65:
 1250 0578 C35D      		subi r28,lo8(-301)
 1251 057a DE4F      		sbci r29,hi8(-301)
 1252 057c 1982      		std Y+1,__zero_reg__
 1253 057e 1882      		st Y,__zero_reg__
 1254 0580 CD52      		subi r28,lo8(301)
 1255 0582 D140      		sbci r29,hi8(301)
 1256               	.LVL66:
 1257 0584 C05E      		subi r28,lo8(-288)
 1258 0586 DE4F      		sbci r29,hi8(-288)
 1259 0588 1882      		st Y,__zero_reg__
 1260 058a 1982      		std Y+1,__zero_reg__
 1261 058c 1A82      		std Y+2,__zero_reg__
 1262 058e 1B82      		std Y+3,__zero_reg__
 1263 0590 C052      		subi r28,lo8(288)
 1264 0592 D140      		sbci r29,hi8(288)
 1265               	.LVL67:
 1266 0594 CE5C      		subi r28,lo8(-306)
 1267 0596 DE4F      		sbci r29,hi8(-306)
 1268 0598 1882      		st Y,__zero_reg__
 1269 059a 1982      		std Y+1,__zero_reg__
 1270 059c 1A82      		std Y+2,__zero_reg__
 1271 059e 1B82      		std Y+3,__zero_reg__
 1272 05a0 C253      		subi r28,lo8(306)
 1273 05a2 D140      		sbci r29,hi8(306)
 1274               	.LVL68:
 1275               	.LBB1035:
 1276               	.LBB1036:
 1277               	.LBB1037:
 1278               	.LBB1038:
 1279               	.LM170:
 1280 05a4 EE24      		clr r14
 1281 05a6 FF24      		clr r15
 1282 05a8 8701      		movw r16,r14
 1283               	.LVL69:
 1284               	/* #APP */
 1285               	 ;  509 "stk500boot.c" 1
 1286 05aa 0BBF      		out 59, r16
 1287 05ac F701      		movw r30, r14
 1288 05ae 0791      		elpm r16, Z+
 1289 05b0 1691      		elpm r17, Z
 1290               		
 1291               	 ;  0 "" 2
 1292               	/* #NOAPP */
 1293 05b2 C45C      		subi r28,lo8(-316)
 1294 05b4 DE4F      		sbci r29,hi8(-316)
 1295 05b6 1983      		std Y+1,r17
 1296 05b8 0883      		st Y,r16
 1297 05ba CC53      		subi r28,lo8(316)
 1298 05bc D140      		sbci r29,hi8(316)
 1299 05be 0C94 0000 		jmp .L110
 1300               	.LVL70:
 1301               	.L513:
 1302               	.LBE1038:
 1303               	.LBE1037:
 1304               	.LBE1036:
 1305               	.LBE1035:
 1306               	.LM171:
 1307 05c2 C25E      		subi r28,lo8(-286)
 1308 05c4 DE4F      		sbci r29,hi8(-286)
 1309 05c6 2881      		ld r18,Y
 1310 05c8 3981      		ldd r19,Y+1
 1311 05ca CE51      		subi r28,lo8(286)
 1312 05cc D140      		sbci r29,hi8(286)
 1313               	.LVL71:
 1314 05ce 2130      		cpi r18,1
 1315 05d0 3105      		cpc r19,__zero_reg__
 1316 05d2 01F4      		brne .L517
 1317               	.L111:
 1318               	.LM172:
 1319 05d4 2091 C600 		lds r18,198
 1320               	.LVL72:
 1321 05d8 C25E      		subi r28,lo8(-286)
 1322 05da DE4F      		sbci r29,hi8(-286)
 1323 05dc 1982      		std Y+1,__zero_reg__
 1324 05de 1882      		st Y,__zero_reg__
 1325 05e0 CE51      		subi r28,lo8(286)
 1326 05e2 D140      		sbci r29,hi8(286)
 1327               	.LVL73:
 1328 05e4 00C0      		rjmp .L113
 1329               	.LVL74:
 1330               	.L115:
 1331               	.LBB1041:
 1332               	.LBB1040:
 1333               	.LM173:
 1334 05e6 2F5F      		subi r18,lo8(-(1))
 1335 05e8 3F4F      		sbci r19,hi8(-(1))
 1336 05ea 4F4F      		sbci r20,hlo8(-(1))
 1337 05ec 5F4F      		sbci r21,hhi8(-(1))
 1338               	.LM174:
 1339 05ee 2130      		cpi r18,lo8(8000001)
 1340 05f0 82E1      		ldi r24,hi8(8000001)
 1341 05f2 3807      		cpc r19,r24
 1342 05f4 8AE7      		ldi r24,hlo8(8000001)
 1343 05f6 4807      		cpc r20,r24
 1344 05f8 80E0      		ldi r24,hhi8(8000001)
 1345 05fa 5807      		cpc r21,r24
 1346 05fc 00F0      		brlo .L511
 1347               	.LBB1039:
 1348               	.LM175:
 1349 05fe C45C      		subi r28,lo8(-316)
 1350 0600 DE4F      		sbci r29,hi8(-316)
 1351 0602 E881      		ld r30,Y
 1352 0604 F981      		ldd r31,Y+1
 1353 0606 CC53      		subi r28,lo8(316)
 1354 0608 D140      		sbci r29,hi8(316)
 1355               	.LVL75:
 1356 060a EF5F      		subi r30,lo8(-1)
 1357 060c FF4F      		sbci r31,hi8(-1)
 1358               	.LVL76:
 1359 060e 01F0      		breq .L517
 1360               	.L114:
 1361               	.LM176:
 1362               	/* #APP */
 1363               	 ;  515 "stk500boot.c" 1
 1364 0610 EE27      		clr	r30		
 1365 0612 FF27      		clr	r31		
 1366 0614 0994      		ijmp	
 1367               		
 1368               	 ;  0 "" 2
 1369               	.LVL77:
 1370               	/* #NOAPP */
 1371               	.L517:
 1372 0616 20E0      		ldi r18,lo8(0)
 1373 0618 30E0      		ldi r19,hi8(0)
 1374 061a 40E0      		ldi r20,hlo8(0)
 1375 061c 50E0      		ldi r21,hhi8(0)
 1376               	.LVL78:
 1377               	.L511:
 1378               	.LBE1039:
 1379               	.LM177:
 1380 061e 8091 C000 		lds r24,192
 1381 0622 87FF      		sbrs r24,7
 1382 0624 00C0      		rjmp .L115
 1383               	.LM178:
 1384 0626 2091 C600 		lds r18,198
 1385               	.LVL79:
 1386               	.L113:
 1387               	.LBE1040:
 1388               	.LBE1041:
 1389               	.LM179:
 1390 062a C35D      		subi r28,lo8(-301)
 1391 062c DE4F      		sbci r29,hi8(-301)
 1392 062e 4881      		ld r20,Y
 1393 0630 5981      		ldd r21,Y+1
 1394 0632 CD52      		subi r28,lo8(301)
 1395 0634 D140      		sbci r29,hi8(301)
 1396 0636 4F5F      		subi r20,lo8(-(1))
 1397 0638 5F4F      		sbci r21,hi8(-(1))
 1398 063a C35D      		subi r28,lo8(-301)
 1399 063c DE4F      		sbci r29,hi8(-301)
 1400 063e 5983      		std Y+1,r21
 1401 0640 4883      		st Y,r20
 1402 0642 CD52      		subi r28,lo8(301)
 1403 0644 D140      		sbci r29,hi8(301)
 1404               	.LVL80:
 1405               	.LM180:
 1406 0646 2132      		cpi r18,lo8(33)
 1407 0648 01F0      		breq .+4
 1408 064a 0C94 0000 		jmp .L116
 1409 064e 4A30      		cpi r20,10
 1410 0650 5105      		cpc r21,__zero_reg__
 1411 0652 00F0      		brlo .+4
 1412 0654 0C94 0000 		jmp .L116
 1413               	.LM181:
 1414 0658 0894      		sec
 1415 065a A11C      		adc r10,__zero_reg__
 1416 065c B11C      		adc r11,__zero_reg__
 1417               	.LM182:
 1418 065e 53E0      		ldi r21,lo8(3)
 1419 0660 A516      		cp r10,r21
 1420 0662 B104      		cpc r11,__zero_reg__
 1421 0664 01F0      		breq .+4
 1422 0666 0C94 0000 		jmp .L117
 1423 066a 40E0      		ldi r20,lo8(0)
 1424 066c 50E0      		ldi r21,hi8(0)
 1425               	.LVL81:
 1426               	.LBB1042:
 1427               	.LBB1043:
 1428               	.LBB1044:
 1429               	.LBB1045:
 1430               	.LM183:
 1431 066e 71E2      		ldi r23,lo8(33)
 1432               	.LBE1045:
 1433               	.LBE1044:
 1434               	.LBB1047:
 1435               	.LBB1048:
 1436               	.LBB1052:
 1437               	.LBB1053:
 1438 0670 6DE0      		ldi r22,lo8(13)
 1439               	.LVL82:
 1440               	.LBE1053:
 1441               	.LBE1052:
 1442               	.LBB1049:
 1443               	.LBB1050:
 1444 0672 9AE0      		ldi r25,lo8(10)
 1445               	.LVL83:
 1446 0674 00C0      		rjmp .L118
 1447               	.LVL84:
 1448               	.L120:
 1449               	.LBE1050:
 1450               	.LBE1049:
 1451               	.LBE1048:
 1452               	.LBE1047:
 1453               	.LBB1058:
 1454               	.LBB1046:
 1455 0676 7093 C600 		sts 198,r23
 1456               	.L119:
 1457               	.LM184:
 1458 067a 8091 C000 		lds r24,192
 1459 067e 86FF      		sbrs r24,6
 1460 0680 00C0      		rjmp .L119
 1461               	.LM185:
 1462 0682 8091 C000 		lds r24,192
 1463 0686 8064      		ori r24,lo8(64)
 1464 0688 8093 C000 		sts 192,r24
 1465               	.LBE1046:
 1466               	.LBE1058:
 1467               	.LM186:
 1468 068c 2F5F      		subi r18,lo8(-(1))
 1469 068e 3F4F      		sbci r19,hi8(-(1))
 1470 0690 2931      		cpi r18,25
 1471 0692 3105      		cpc r19,__zero_reg__
 1472 0694 01F4      		brne .L120
 1473               	.LBB1059:
 1474               	.LBB1057:
 1475               	.LBB1055:
 1476               	.LBB1054:
 1477               	.LM187:
 1478 0696 6093 C600 		sts 198,r22
 1479               	.L121:
 1480               	.LM188:
 1481 069a 8091 C000 		lds r24,192
 1482 069e 86FF      		sbrs r24,6
 1483 06a0 00C0      		rjmp .L121
 1484               	.LM189:
 1485 06a2 8091 C000 		lds r24,192
 1486 06a6 8064      		ori r24,lo8(64)
 1487 06a8 8093 C000 		sts 192,r24
 1488               	.LBE1054:
 1489               	.LBE1055:
 1490               	.LBB1056:
 1491               	.LBB1051:
 1492               	.LM190:
 1493 06ac 9093 C600 		sts 198,r25
 1494               	.L122:
 1495               	.LM191:
 1496 06b0 8091 C000 		lds r24,192
 1497 06b4 86FF      		sbrs r24,6
 1498 06b6 00C0      		rjmp .L122
 1499               	.LM192:
 1500 06b8 8091 C000 		lds r24,192
 1501 06bc 8064      		ori r24,lo8(64)
 1502 06be 8093 C000 		sts 192,r24
 1503               	.LBE1051:
 1504               	.LBE1056:
 1505               	.LBE1057:
 1506               	.LBE1059:
 1507               	.LM193:
 1508 06c2 4F5F      		subi r20,lo8(-(1))
 1509 06c4 5F4F      		sbci r21,hi8(-(1))
 1510 06c6 4530      		cpi r20,5
 1511 06c8 5105      		cpc r21,__zero_reg__
 1512 06ca 01F0      		breq .L123
 1513               	.LVL85:
 1514               	.L118:
 1515 06cc 20E0      		ldi r18,lo8(0)
 1516 06ce 30E0      		ldi r19,hi8(0)
 1517               	.LVL86:
 1518 06d0 00C0      		rjmp .L120
 1519               	.L123:
 1520               	.LM194:
 1521 06d2 1092 0000 		sts gRamIndex,__zero_reg__
 1522 06d6 1092 0000 		sts (gRamIndex)+1,__zero_reg__
 1523 06da 1092 0000 		sts (gRamIndex)+2,__zero_reg__
 1524 06de 1092 0000 		sts (gRamIndex)+3,__zero_reg__
 1525               	.LM195:
 1526 06e2 1092 0000 		sts gFlashIndex,__zero_reg__
 1527 06e6 1092 0000 		sts (gFlashIndex)+1,__zero_reg__
 1528 06ea 1092 0000 		sts (gFlashIndex)+2,__zero_reg__
 1529 06ee 1092 0000 		sts (gFlashIndex)+3,__zero_reg__
 1530               	.LM196:
 1531 06f2 1092 0000 		sts gEepromIndex,__zero_reg__
 1532 06f6 1092 0000 		sts (gEepromIndex)+1,__zero_reg__
 1533 06fa 1092 0000 		sts (gEepromIndex)+2,__zero_reg__
 1534 06fe 1092 0000 		sts (gEepromIndex)+3,__zero_reg__
 1535               	.LM197:
 1536 0702 80E0      		ldi r24,lo8(gTextMsg_Explorer)
 1537 0704 90E0      		ldi r25,hi8(gTextMsg_Explorer)
 1538               	.LVL87:
 1539               	.L518:
 1540 0706 60E0      		ldi r22,lo8(0)
 1541 0708 0E94 0000 		call PrintFromPROGMEMln
 1542               	.LVL88:
 1543               	.L512:
 1544 070c 20E0      		ldi r18,lo8(gTextMsg_Prompt)
 1545 070e 30E0      		ldi r19,hi8(gTextMsg_Prompt)
 1546               	.LVL89:
 1547               	.L126:
 1548               	.LBB1060:
 1549               	.LBB1061:
 1550               	.LBB1062:
 1551               	.LM198:
 1552 0710 C901      		movw r24,r18
 1553               	.LVL90:
 1554 0712 A0E0      		ldi r26,lo8(0)
 1555 0714 B0E0      		ldi r27,hi8(0)
 1556               	.LVL91:
 1557 0716 2F5F      		subi r18,lo8(-(1))
 1558 0718 3F4F      		sbci r19,hi8(-(1))
 1559               	/* #APP */
 1560               	 ;  1298 "stk500boot.c" 1
 1561 071a ABBF      		out 59, r26
 1562 071c FC01      		movw r30, r24
 1563 071e 8791      		elpm r24, Z+
 1564               		
 1565               	 ;  0 "" 2
 1566               	.LVL92:
 1567               	/* #NOAPP */
 1568               	.LBE1062:
 1569               	.LM199:
 1570 0720 8823      		tst r24
 1571 0722 01F0      		breq .L398
 1572               	.LBB1063:
 1573               	.LBB1064:
 1574               	.LM200:
 1575 0724 8093 C600 		sts 198,r24
 1576               	.L125:
 1577               	.LM201:
 1578 0728 8091 C000 		lds r24,192
 1579               	.LVL93:
 1580 072c 86FF      		sbrs r24,6
 1581 072e 00C0      		rjmp .L125
 1582               	.LM202:
 1583 0730 8091 C000 		lds r24,192
 1584 0734 8064      		ori r24,lo8(64)
 1585 0736 8093 C000 		sts 192,r24
 1586 073a 00C0      		rjmp .L126
 1587               	.LVL94:
 1588               	.L398:
 1589               	.LBE1064:
 1590               	.LBE1063:
 1591               	.LBE1061:
 1592               	.LBE1060:
 1593               	.LBB1065:
 1594               	.LBB1066:
 1595               	.LM203:
 1596 073c 8091 C000 		lds r24,192
 1597               	.LVL95:
 1598 0740 87FF      		sbrs r24,7
 1599 0742 00C0      		rjmp .L398
 1600               	.LM204:
 1601 0744 9091 C600 		lds r25,198
 1602               	.LVL96:
 1603               	.LBE1066:
 1604               	.LBE1065:
 1605               	.LM205:
 1606 0748 9036      		cpi r25,lo8(96)
 1607 074a 00F0      		brlo .L127
 1608               	.LM206:
 1609 074c 9F75      		andi r25,lo8(95)
 1610               	.L127:
 1611               	.LM207:
 1612 074e 9032      		cpi r25,lo8(32)
 1613 0750 00F0      		brlo .L128
 1614               	.LBB1067:
 1615               	.LBB1068:
 1616               	.LM208:
 1617 0752 9093 C600 		sts 198,r25
 1618               	.L129:
 1619               	.LM209:
 1620 0756 8091 C000 		lds r24,192
 1621 075a 86FF      		sbrs r24,6
 1622 075c 00C0      		rjmp .L129
 1623               	.LM210:
 1624 075e 8091 C000 		lds r24,192
 1625 0762 8064      		ori r24,lo8(64)
 1626 0764 8093 C000 		sts 192,r24
 1627               	.LBE1068:
 1628               	.LBE1067:
 1629               	.LBB1069:
 1630               	.LBB1070:
 1631               	.LM211:
 1632 0768 80E2      		ldi r24,lo8(32)
 1633 076a 8093 C600 		sts 198,r24
 1634               	.L130:
 1635               	.LM212:
 1636 076e 8091 C000 		lds r24,192
 1637 0772 86FF      		sbrs r24,6
 1638 0774 00C0      		rjmp .L130
 1639               	.LM213:
 1640 0776 8091 C000 		lds r24,192
 1641 077a 8064      		ori r24,lo8(64)
 1642 077c 8093 C000 		sts 192,r24
 1643               	.L128:
 1644               	.LBE1070:
 1645               	.LBE1069:
 1646               	.LM214:
 1647 0780 9834      		cpi r25,lo8(72)
 1648 0782 01F4      		brne .+2
 1649 0784 00C0      		rjmp .L138
 1650 0786 9934      		cpi r25,lo8(73)
 1651 0788 00F4      		brsh .L144
 1652 078a 9234      		cpi r25,lo8(66)
 1653 078c 01F4      		brne .+2
 1654 078e 00C0      		rjmp .L135
 1655 0790 9334      		cpi r25,lo8(67)
 1656 0792 00F4      		brsh .L145
 1657 0794 9033      		cpi r25,lo8(48)
 1658 0796 01F0      		breq .L132
 1659 0798 9033      		cpi r25,lo8(48)
 1660 079a 00F4      		brsh .+4
 1661 079c 0C94 0000 		jmp .L131
 1662 07a0 9F33      		cpi r25,lo8(63)
 1663 07a2 01F0      		breq .L133
 1664 07a4 9034      		cpi r25,lo8(64)
 1665 07a6 01F0      		breq .+4
 1666 07a8 0C94 0000 		jmp .L131
 1667 07ac 00C0      		rjmp .L526
 1668               	.L145:
 1669 07ae 9534      		cpi r25,lo8(69)
 1670 07b0 01F4      		brne .+2
 1671 07b2 00C0      		rjmp .L136
 1672 07b4 9634      		cpi r25,lo8(70)
 1673 07b6 01F0      		breq .+4
 1674 07b8 0C94 0000 		jmp .L131
 1675 07bc 00C0      		rjmp .L527
 1676               	.L144:
 1677 07be 9235      		cpi r25,lo8(82)
 1678 07c0 01F4      		brne .+2
 1679 07c2 00C0      		rjmp .L141
 1680 07c4 9335      		cpi r25,lo8(83)
 1681 07c6 00F4      		brsh .L146
 1682 07c8 9C34      		cpi r25,lo8(76)
 1683 07ca 01F4      		brne .+2
 1684 07cc 00C0      		rjmp .L139
 1685 07ce 9135      		cpi r25,lo8(81)
 1686 07d0 01F0      		breq .+4
 1687 07d2 0C94 0000 		jmp .L131
 1688 07d6 00C0      		rjmp .L528
 1689               	.L146:
 1690 07d8 9635      		cpi r25,lo8(86)
 1691 07da 01F4      		brne .+2
 1692 07dc 00C0      		rjmp .L142
 1693 07de 9935      		cpi r25,lo8(89)
 1694 07e0 01F0      		breq .+4
 1695 07e2 0C94 0000 		jmp .L131
 1696 07e6 00C0      		rjmp .L529
 1697               	.L132:
 1698               	.LM215:
 1699 07e8 80E0      		ldi r24,lo8(gTextMsg_HELP_MSG_0)
 1700 07ea 90E0      		ldi r25,hi8(gTextMsg_HELP_MSG_0)
 1701 07ec 62E0      		ldi r22,lo8(2)
 1702 07ee 0E94 0000 		call PrintFromPROGMEMln
 1703               	.LVL97:
 1704               	.LM216:
 1705 07f2 1092 0000 		sts gFlashIndex,__zero_reg__
 1706 07f6 1092 0000 		sts (gFlashIndex)+1,__zero_reg__
 1707 07fa 1092 0000 		sts (gFlashIndex)+2,__zero_reg__
 1708 07fe 1092 0000 		sts (gFlashIndex)+3,__zero_reg__
 1709               	.LM217:
 1710 0802 1092 0000 		sts gRamIndex,__zero_reg__
 1711 0806 1092 0000 		sts (gRamIndex)+1,__zero_reg__
 1712 080a 1092 0000 		sts (gRamIndex)+2,__zero_reg__
 1713 080e 1092 0000 		sts (gRamIndex)+3,__zero_reg__
 1714 0812 00C0      		rjmp .L519
 1715               	.LVL98:
 1716               	.L133:
 1717               	.LM218:
 1718 0814 80E0      		ldi r24,lo8(gTextMsg_HELP_MSG_QM)
 1719 0816 90E0      		ldi r25,hi8(gTextMsg_HELP_MSG_QM)
 1720 0818 62E0      		ldi r22,lo8(2)
 1721 081a 0E94 0000 		call PrintFromPROGMEMln
 1722               	.LVL99:
 1723               	.LBB1071:
 1724               	.LBB1072:
 1725               	.LM219:
 1726 081e 80E0      		ldi r24,lo8(gTextMsg_Explorer)
 1727 0820 90E0      		ldi r25,hi8(gTextMsg_Explorer)
 1728 0822 60E0      		ldi r22,lo8(0)
 1729 0824 0E94 0000 		call PrintFromPROGMEMln
 1730 0828 20E0      		ldi r18,lo8(gTextMsg_COMPILED_ON)
 1731 082a 30E0      		ldi r19,hi8(gTextMsg_COMPILED_ON)
 1732               	.LVL100:
 1733               	.L150:
 1734               	.LBB1073:
 1735               	.LBB1074:
 1736               	.LBB1075:
 1737               	.LM220:
 1738 082c C901      		movw r24,r18
 1739               	.LVL101:
 1740 082e A0E0      		ldi r26,lo8(0)
 1741 0830 B0E0      		ldi r27,hi8(0)
 1742 0832 2F5F      		subi r18,lo8(-(1))
 1743 0834 3F4F      		sbci r19,hi8(-(1))
 1744               	/* #APP */
 1745               	 ;  1298 "stk500boot.c" 1
 1746 0836 ABBF      		out 59, r26
 1747 0838 FC01      		movw r30, r24
 1748 083a 8791      		elpm r24, Z+
 1749               		
 1750               	 ;  0 "" 2
 1751               	.LVL102:
 1752               	/* #NOAPP */
 1753               	.LBE1075:
 1754               	.LM221:
 1755 083c 8823      		tst r24
 1756 083e 01F0      		breq .L148
 1757               	.LBB1076:
 1758               	.LBB1077:
 1759               	.LM222:
 1760 0840 8093 C600 		sts 198,r24
 1761               	.L149:
 1762               	.LM223:
 1763 0844 8091 C000 		lds r24,192
 1764               	.LVL103:
 1765 0848 86FF      		sbrs r24,6
 1766 084a 00C0      		rjmp .L149
 1767               	.LM224:
 1768 084c 8091 C000 		lds r24,192
 1769 0850 8064      		ori r24,lo8(64)
 1770 0852 8093 C000 		sts 192,r24
 1771 0856 00C0      		rjmp .L150
 1772               	.LVL104:
 1773               	.L148:
 1774               	.LBE1077:
 1775               	.LBE1076:
 1776               	.LBE1074:
 1777               	.LBE1073:
 1778               	.LM225:
 1779 0858 80E0      		ldi r24,lo8(gTextMsg_GCC_DATE_STR)
 1780 085a 90E0      		ldi r25,hi8(gTextMsg_GCC_DATE_STR)
 1781               	.LVL105:
 1782 085c 60E0      		ldi r22,lo8(0)
 1783 085e 0E94 0000 		call PrintFromPROGMEMln
 1784               	.LVL106:
 1785 0862 20E0      		ldi r18,lo8(gTextMsg_CPU_Type)
 1786 0864 30E0      		ldi r19,hi8(gTextMsg_CPU_Type)
 1787               	.LVL107:
 1788               	.L153:
 1789               	.LBB1078:
 1790               	.LBB1079:
 1791               	.LBB1080:
 1792               	.LM226:
 1793 0866 C901      		movw r24,r18
 1794               	.LVL108:
 1795 0868 A0E0      		ldi r26,lo8(0)
 1796 086a B0E0      		ldi r27,hi8(0)
 1797 086c 2F5F      		subi r18,lo8(-(1))
 1798 086e 3F4F      		sbci r19,hi8(-(1))
 1799               	/* #APP */
 1800               	 ;  1298 "stk500boot.c" 1
 1801 0870 ABBF      		out 59, r26
 1802 0872 FC01      		movw r30, r24
 1803 0874 8791      		elpm r24, Z+
 1804               		
 1805               	 ;  0 "" 2
 1806               	.LVL109:
 1807               	/* #NOAPP */
 1808               	.LBE1080:
 1809               	.LM227:
 1810 0876 8823      		tst r24
 1811 0878 01F0      		breq .L151
 1812               	.LBB1081:
 1813               	.LBB1082:
 1814               	.LM228:
 1815 087a 8093 C600 		sts 198,r24
 1816               	.L152:
 1817               	.LM229:
 1818 087e 8091 C000 		lds r24,192
 1819               	.LVL110:
 1820 0882 86FF      		sbrs r24,6
 1821 0884 00C0      		rjmp .L152
 1822               	.LM230:
 1823 0886 8091 C000 		lds r24,192
 1824 088a 8064      		ori r24,lo8(64)
 1825 088c 8093 C000 		sts 192,r24
 1826 0890 00C0      		rjmp .L153
 1827               	.LVL111:
 1828               	.L151:
 1829               	.LBE1082:
 1830               	.LBE1081:
 1831               	.LBE1079:
 1832               	.LBE1078:
 1833               	.LM231:
 1834 0892 80E0      		ldi r24,lo8(gTextMsg_CPU_Name)
 1835 0894 90E0      		ldi r25,hi8(gTextMsg_CPU_Name)
 1836               	.LVL112:
 1837 0896 60E0      		ldi r22,lo8(0)
 1838 0898 0E94 0000 		call PrintFromPROGMEMln
 1839               	.LVL113:
 1840 089c 20E0      		ldi r18,lo8(gTextMsg_AVR_ARCH)
 1841 089e 30E0      		ldi r19,hi8(gTextMsg_AVR_ARCH)
 1842               	.LVL114:
 1843               	.L156:
 1844               	.LBB1083:
 1845               	.LBB1084:
 1846               	.LBB1085:
 1847               	.LM232:
 1848 08a0 C901      		movw r24,r18
 1849               	.LVL115:
 1850 08a2 A0E0      		ldi r26,lo8(0)
 1851 08a4 B0E0      		ldi r27,hi8(0)
 1852 08a6 2F5F      		subi r18,lo8(-(1))
 1853 08a8 3F4F      		sbci r19,hi8(-(1))
 1854               	/* #APP */
 1855               	 ;  1298 "stk500boot.c" 1
 1856 08aa ABBF      		out 59, r26
 1857 08ac FC01      		movw r30, r24
 1858 08ae 8791      		elpm r24, Z+
 1859               		
 1860               	 ;  0 "" 2
 1861               	.LVL116:
 1862               	/* #NOAPP */
 1863               	.LBE1085:
 1864               	.LM233:
 1865 08b0 8823      		tst r24
 1866 08b2 01F0      		breq .L154
 1867               	.LBB1086:
 1868               	.LBB1087:
 1869               	.LM234:
 1870 08b4 8093 C600 		sts 198,r24
 1871               	.L155:
 1872               	.LM235:
 1873 08b8 8091 C000 		lds r24,192
 1874               	.LVL117:
 1875 08bc 86FF      		sbrs r24,6
 1876 08be 00C0      		rjmp .L155
 1877               	.LM236:
 1878 08c0 8091 C000 		lds r24,192
 1879 08c4 8064      		ori r24,lo8(64)
 1880 08c6 8093 C000 		sts 192,r24
 1881 08ca 00C0      		rjmp .L156
 1882               	.LVL118:
 1883               	.L154:
 1884               	.LBE1087:
 1885               	.LBE1086:
 1886               	.LBE1084:
 1887               	.LBE1083:
 1888               	.LM237:
 1889 08cc 83E3      		ldi r24,lo8(51)
 1890 08ce 90E0      		ldi r25,hi8(51)
 1891               	.LVL119:
 1892 08d0 61E0      		ldi r22,lo8(1)
 1893 08d2 70E0      		ldi r23,hi8(1)
 1894 08d4 0E94 0000 		call PrintDecInt
 1895               	.LVL120:
 1896               	.LBB1088:
 1897               	.LBB1089:
 1898               	.LBB1090:
 1899               	.LBB1091:
 1900               	.LM238:
 1901 08d8 8DE0      		ldi r24,lo8(13)
 1902 08da 8093 C600 		sts 198,r24
 1903               	.L157:
 1904               	.LM239:
 1905 08de 8091 C000 		lds r24,192
 1906 08e2 86FF      		sbrs r24,6
 1907 08e4 00C0      		rjmp .L157
 1908               	.LM240:
 1909 08e6 8091 C000 		lds r24,192
 1910 08ea 8064      		ori r24,lo8(64)
 1911 08ec 8093 C000 		sts 192,r24
 1912               	.LBE1091:
 1913               	.LBE1090:
 1914               	.LBB1092:
 1915               	.LBB1093:
 1916               	.LM241:
 1917 08f0 8AE0      		ldi r24,lo8(10)
 1918 08f2 8093 C600 		sts 198,r24
 1919               	.L158:
 1920               	.LM242:
 1921 08f6 8091 C000 		lds r24,192
 1922 08fa 86FF      		sbrs r24,6
 1923 08fc 00C0      		rjmp .L158
 1924               	.LM243:
 1925 08fe 8091 C000 		lds r24,192
 1926 0902 8064      		ori r24,lo8(64)
 1927 0904 8093 C000 		sts 192,r24
 1928 0908 20E0      		ldi r18,lo8(gTextMsg_GCC_VERSION)
 1929 090a 30E0      		ldi r19,hi8(gTextMsg_GCC_VERSION)
 1930               	.LVL121:
 1931               	.L161:
 1932               	.LBE1093:
 1933               	.LBE1092:
 1934               	.LBE1089:
 1935               	.LBE1088:
 1936               	.LBB1094:
 1937               	.LBB1095:
 1938               	.LBB1096:
 1939               	.LM244:
 1940 090c C901      		movw r24,r18
 1941               	.LVL122:
 1942 090e A0E0      		ldi r26,lo8(0)
 1943 0910 B0E0      		ldi r27,hi8(0)
 1944 0912 2F5F      		subi r18,lo8(-(1))
 1945 0914 3F4F      		sbci r19,hi8(-(1))
 1946               	/* #APP */
 1947               	 ;  1298 "stk500boot.c" 1
 1948 0916 ABBF      		out 59, r26
 1949 0918 FC01      		movw r30, r24
 1950 091a 8791      		elpm r24, Z+
 1951               		
 1952               	 ;  0 "" 2
 1953               	.LVL123:
 1954               	/* #NOAPP */
 1955               	.LBE1096:
 1956               	.LM245:
 1957 091c 8823      		tst r24
 1958 091e 01F0      		breq .L159
 1959               	.LBB1097:
 1960               	.LBB1098:
 1961               	.LM246:
 1962 0920 8093 C600 		sts 198,r24
 1963               	.L160:
 1964               	.LM247:
 1965 0924 8091 C000 		lds r24,192
 1966               	.LVL124:
 1967 0928 86FF      		sbrs r24,6
 1968 092a 00C0      		rjmp .L160
 1969               	.LM248:
 1970 092c 8091 C000 		lds r24,192
 1971 0930 8064      		ori r24,lo8(64)
 1972 0932 8093 C000 		sts 192,r24
 1973 0936 00C0      		rjmp .L161
 1974               	.LVL125:
 1975               	.L159:
 1976               	.LBE1098:
 1977               	.LBE1097:
 1978               	.LBE1095:
 1979               	.LBE1094:
 1980               	.LM249:
 1981 0938 80E0      		ldi r24,lo8(gTextMsg_GCC_VERSION_STR)
 1982 093a 90E0      		ldi r25,hi8(gTextMsg_GCC_VERSION_STR)
 1983               	.LVL126:
 1984 093c 60E0      		ldi r22,lo8(0)
 1985 093e 0E94 0000 		call PrintFromPROGMEMln
 1986               	.LVL127:
 1987 0942 20E0      		ldi r18,lo8(gTextMsg_AVR_LIBC)
 1988 0944 30E0      		ldi r19,hi8(gTextMsg_AVR_LIBC)
 1989               	.LVL128:
 1990               	.L164:
 1991               	.LBB1099:
 1992               	.LBB1100:
 1993               	.LBB1101:
 1994               	.LM250:
 1995 0946 C901      		movw r24,r18
 1996               	.LVL129:
 1997 0948 A0E0      		ldi r26,lo8(0)
 1998 094a B0E0      		ldi r27,hi8(0)
 1999 094c 2F5F      		subi r18,lo8(-(1))
 2000 094e 3F4F      		sbci r19,hi8(-(1))
 2001               	/* #APP */
 2002               	 ;  1298 "stk500boot.c" 1
 2003 0950 ABBF      		out 59, r26
 2004 0952 FC01      		movw r30, r24
 2005 0954 8791      		elpm r24, Z+
 2006               		
 2007               	 ;  0 "" 2
 2008               	.LVL130:
 2009               	/* #NOAPP */
 2010               	.LBE1101:
 2011               	.LM251:
 2012 0956 8823      		tst r24
 2013 0958 01F0      		breq .L162
 2014               	.LBB1102:
 2015               	.LBB1103:
 2016               	.LM252:
 2017 095a 8093 C600 		sts 198,r24
 2018               	.L163:
 2019               	.LM253:
 2020 095e 8091 C000 		lds r24,192
 2021               	.LVL131:
 2022 0962 86FF      		sbrs r24,6
 2023 0964 00C0      		rjmp .L163
 2024               	.LM254:
 2025 0966 8091 C000 		lds r24,192
 2026 096a 8064      		ori r24,lo8(64)
 2027 096c 8093 C000 		sts 192,r24
 2028 0970 00C0      		rjmp .L164
 2029               	.LVL132:
 2030               	.L162:
 2031               	.LBE1103:
 2032               	.LBE1102:
 2033               	.LBE1100:
 2034               	.LBE1099:
 2035               	.LM255:
 2036 0972 80E0      		ldi r24,lo8(gTextMsg_AVR_LIBC_VER_STR)
 2037 0974 90E0      		ldi r25,hi8(gTextMsg_AVR_LIBC_VER_STR)
 2038               	.LVL133:
 2039 0976 60E0      		ldi r22,lo8(0)
 2040 0978 0E94 0000 		call PrintFromPROGMEMln
 2041               	.LVL134:
 2042 097c 20E0      		ldi r18,lo8(gTextMsg_CPU_SIGNATURE)
 2043 097e 30E0      		ldi r19,hi8(gTextMsg_CPU_SIGNATURE)
 2044               	.LVL135:
 2045               	.L167:
 2046               	.LBB1104:
 2047               	.LBB1105:
 2048               	.LBB1106:
 2049               	.LM256:
 2050 0980 C901      		movw r24,r18
 2051               	.LVL136:
 2052 0982 A0E0      		ldi r26,lo8(0)
 2053 0984 B0E0      		ldi r27,hi8(0)
 2054 0986 2F5F      		subi r18,lo8(-(1))
 2055 0988 3F4F      		sbci r19,hi8(-(1))
 2056               	/* #APP */
 2057               	 ;  1298 "stk500boot.c" 1
 2058 098a ABBF      		out 59, r26
 2059 098c FC01      		movw r30, r24
 2060 098e 8791      		elpm r24, Z+
 2061               		
 2062               	 ;  0 "" 2
 2063               	.LVL137:
 2064               	/* #NOAPP */
 2065               	.LBE1106:
 2066               	.LM257:
 2067 0990 8823      		tst r24
 2068 0992 01F0      		breq .L165
 2069               	.LBB1107:
 2070               	.LBB1108:
 2071               	.LM258:
 2072 0994 8093 C600 		sts 198,r24
 2073               	.L166:
 2074               	.LM259:
 2075 0998 8091 C000 		lds r24,192
 2076               	.LVL138:
 2077 099c 86FF      		sbrs r24,6
 2078 099e 00C0      		rjmp .L166
 2079               	.LM260:
 2080 09a0 8091 C000 		lds r24,192
 2081 09a4 8064      		ori r24,lo8(64)
 2082 09a6 8093 C000 		sts 192,r24
 2083 09aa 00C0      		rjmp .L167
 2084               	.LVL139:
 2085               	.L165:
 2086               	.LBE1108:
 2087               	.LBE1107:
 2088               	.LBE1105:
 2089               	.LBE1104:
 2090               	.LM261:
 2091 09ac 8EE1      		ldi r24,lo8(30)
 2092               	.LVL140:
 2093 09ae 0E94 0000 		call PrintHexByte
 2094               	.LVL141:
 2095               	.LM262:
 2096 09b2 87E9      		ldi r24,lo8(-105)
 2097 09b4 0E94 0000 		call PrintHexByte
 2098               	.LM263:
 2099 09b8 83E0      		ldi r24,lo8(3)
 2100 09ba 0E94 0000 		call PrintHexByte
 2101               	.LBB1109:
 2102               	.LBB1110:
 2103               	.LBB1111:
 2104               	.LBB1112:
 2105               	.LM264:
 2106 09be 8DE0      		ldi r24,lo8(13)
 2107 09c0 8093 C600 		sts 198,r24
 2108               	.L168:
 2109               	.LM265:
 2110 09c4 8091 C000 		lds r24,192
 2111 09c8 86FF      		sbrs r24,6
 2112 09ca 00C0      		rjmp .L168
 2113               	.LM266:
 2114 09cc 8091 C000 		lds r24,192
 2115 09d0 8064      		ori r24,lo8(64)
 2116 09d2 8093 C000 		sts 192,r24
 2117               	.LBE1112:
 2118               	.LBE1111:
 2119               	.LBB1113:
 2120               	.LBB1114:
 2121               	.LM267:
 2122 09d6 8AE0      		ldi r24,lo8(10)
 2123 09d8 8093 C600 		sts 198,r24
 2124               	.L169:
 2125               	.LM268:
 2126 09dc 8091 C000 		lds r24,192
 2127 09e0 86FF      		sbrs r24,6
 2128 09e2 00C0      		rjmp .L169
 2129               	.LM269:
 2130 09e4 8091 C000 		lds r24,192
 2131 09e8 8064      		ori r24,lo8(64)
 2132 09ea 8093 C000 		sts 192,r24
 2133 09ee 20E0      		ldi r18,lo8(gTextMsg_FUSE_BYTE_LOW)
 2134 09f0 30E0      		ldi r19,hi8(gTextMsg_FUSE_BYTE_LOW)
 2135               	.LVL142:
 2136               	.L172:
 2137               	.LBE1114:
 2138               	.LBE1113:
 2139               	.LBE1110:
 2140               	.LBE1109:
 2141               	.LBB1115:
 2142               	.LBB1116:
 2143               	.LBB1117:
 2144               	.LM270:
 2145 09f2 C901      		movw r24,r18
 2146               	.LVL143:
 2147 09f4 A0E0      		ldi r26,lo8(0)
 2148 09f6 B0E0      		ldi r27,hi8(0)
 2149 09f8 2F5F      		subi r18,lo8(-(1))
 2150 09fa 3F4F      		sbci r19,hi8(-(1))
 2151               	/* #APP */
 2152               	 ;  1298 "stk500boot.c" 1
 2153 09fc ABBF      		out 59, r26
 2154 09fe FC01      		movw r30, r24
 2155 0a00 8791      		elpm r24, Z+
 2156               		
 2157               	 ;  0 "" 2
 2158               	.LVL144:
 2159               	/* #NOAPP */
 2160               	.LBE1117:
 2161               	.LM271:
 2162 0a02 8823      		tst r24
 2163 0a04 01F0      		breq .L170
 2164               	.LBB1118:
 2165               	.LBB1119:
 2166               	.LM272:
 2167 0a06 8093 C600 		sts 198,r24
 2168               	.L171:
 2169               	.LM273:
 2170 0a0a 8091 C000 		lds r24,192
 2171               	.LVL145:
 2172 0a0e 86FF      		sbrs r24,6
 2173 0a10 00C0      		rjmp .L171
 2174               	.LM274:
 2175 0a12 8091 C000 		lds r24,192
 2176 0a16 8064      		ori r24,lo8(64)
 2177 0a18 8093 C000 		sts 192,r24
 2178 0a1c 00C0      		rjmp .L172
 2179               	.LVL146:
 2180               	.L170:
 2181               	.LBE1119:
 2182               	.LBE1118:
 2183               	.LBE1116:
 2184               	.LBE1115:
 2185               	.LM275:
 2186 0a1e 89E0      		ldi r24,lo8(9)
 2187               	.LVL147:
 2188               	/* #APP */
 2189               	 ;  1428 "stk500boot.c" 1
 2190 0a20 E0E0      		ldi r30, 0
 2191 0a22 F0E0      		ldi r31, 0
 2192 0a24 8093 5700 		sts 87, r24
 2193 0a28 8491      		lpm r24, Z
 2194               		
 2195               	 ;  0 "" 2
 2196               	/* #NOAPP */
 2197 0a2a 0E94 0000 		call PrintHexByte
 2198               	.LVL148:
 2199               	.LBB1120:
 2200               	.LBB1121:
 2201               	.LBB1122:
 2202               	.LBB1123:
 2203               	.LM276:
 2204 0a2e 8DE0      		ldi r24,lo8(13)
 2205 0a30 8093 C600 		sts 198,r24
 2206               	.L173:
 2207               	.LM277:
 2208 0a34 8091 C000 		lds r24,192
 2209 0a38 86FF      		sbrs r24,6
 2210 0a3a 00C0      		rjmp .L173
 2211               	.LM278:
 2212 0a3c 8091 C000 		lds r24,192
 2213 0a40 8064      		ori r24,lo8(64)
 2214 0a42 8093 C000 		sts 192,r24
 2215               	.LBE1123:
 2216               	.LBE1122:
 2217               	.LBB1124:
 2218               	.LBB1125:
 2219               	.LM279:
 2220 0a46 8AE0      		ldi r24,lo8(10)
 2221 0a48 8093 C600 		sts 198,r24
 2222               	.L174:
 2223               	.LM280:
 2224 0a4c 8091 C000 		lds r24,192
 2225 0a50 86FF      		sbrs r24,6
 2226 0a52 00C0      		rjmp .L174
 2227               	.LM281:
 2228 0a54 8091 C000 		lds r24,192
 2229 0a58 8064      		ori r24,lo8(64)
 2230 0a5a 8093 C000 		sts 192,r24
 2231 0a5e 20E0      		ldi r18,lo8(gTextMsg_FUSE_BYTE_HIGH)
 2232 0a60 30E0      		ldi r19,hi8(gTextMsg_FUSE_BYTE_HIGH)
 2233               	.LVL149:
 2234               	.L177:
 2235               	.LBE1125:
 2236               	.LBE1124:
 2237               	.LBE1121:
 2238               	.LBE1120:
 2239               	.LBB1126:
 2240               	.LBB1127:
 2241               	.LBB1128:
 2242               	.LM282:
 2243 0a62 C901      		movw r24,r18
 2244               	.LVL150:
 2245 0a64 A0E0      		ldi r26,lo8(0)
 2246 0a66 B0E0      		ldi r27,hi8(0)
 2247 0a68 2F5F      		subi r18,lo8(-(1))
 2248 0a6a 3F4F      		sbci r19,hi8(-(1))
 2249               	/* #APP */
 2250               	 ;  1298 "stk500boot.c" 1
 2251 0a6c ABBF      		out 59, r26
 2252 0a6e FC01      		movw r30, r24
 2253 0a70 8791      		elpm r24, Z+
 2254               		
 2255               	 ;  0 "" 2
 2256               	.LVL151:
 2257               	/* #NOAPP */
 2258               	.LBE1128:
 2259               	.LM283:
 2260 0a72 8823      		tst r24
 2261 0a74 01F0      		breq .L175
 2262               	.LBB1129:
 2263               	.LBB1130:
 2264               	.LM284:
 2265 0a76 8093 C600 		sts 198,r24
 2266               	.L176:
 2267               	.LM285:
 2268 0a7a 8091 C000 		lds r24,192
 2269               	.LVL152:
 2270 0a7e 86FF      		sbrs r24,6
 2271 0a80 00C0      		rjmp .L176
 2272               	.LM286:
 2273 0a82 8091 C000 		lds r24,192
 2274 0a86 8064      		ori r24,lo8(64)
 2275 0a88 8093 C000 		sts 192,r24
 2276 0a8c 00C0      		rjmp .L177
 2277               	.LVL153:
 2278               	.L175:
 2279               	.LBE1130:
 2280               	.LBE1129:
 2281               	.LBE1127:
 2282               	.LBE1126:
 2283               	.LM287:
 2284 0a8e 89E0      		ldi r24,lo8(9)
 2285               	.LVL154:
 2286               	/* #APP */
 2287               	 ;  1433 "stk500boot.c" 1
 2288 0a90 E3E0      		ldi r30, 3
 2289 0a92 F0E0      		ldi r31, 0
 2290 0a94 8093 5700 		sts 87, r24
 2291 0a98 8491      		lpm r24, Z
 2292               		
 2293               	 ;  0 "" 2
 2294               	/* #NOAPP */
 2295 0a9a 0E94 0000 		call PrintHexByte
 2296               	.LVL155:
 2297               	.LBB1131:
 2298               	.LBB1132:
 2299               	.LBB1133:
 2300               	.LBB1134:
 2301               	.LM288:
 2302 0a9e 8DE0      		ldi r24,lo8(13)
 2303 0aa0 8093 C600 		sts 198,r24
 2304               	.L178:
 2305               	.LM289:
 2306 0aa4 8091 C000 		lds r24,192
 2307 0aa8 86FF      		sbrs r24,6
 2308 0aaa 00C0      		rjmp .L178
 2309               	.LM290:
 2310 0aac 8091 C000 		lds r24,192
 2311 0ab0 8064      		ori r24,lo8(64)
 2312 0ab2 8093 C000 		sts 192,r24
 2313               	.LBE1134:
 2314               	.LBE1133:
 2315               	.LBB1135:
 2316               	.LBB1136:
 2317               	.LM291:
 2318 0ab6 8AE0      		ldi r24,lo8(10)
 2319 0ab8 8093 C600 		sts 198,r24
 2320               	.L179:
 2321               	.LM292:
 2322 0abc 8091 C000 		lds r24,192
 2323 0ac0 86FF      		sbrs r24,6
 2324 0ac2 00C0      		rjmp .L179
 2325               	.LM293:
 2326 0ac4 8091 C000 		lds r24,192
 2327 0ac8 8064      		ori r24,lo8(64)
 2328 0aca 8093 C000 		sts 192,r24
 2329 0ace 20E0      		ldi r18,lo8(gTextMsg_FUSE_BYTE_EXT)
 2330 0ad0 30E0      		ldi r19,hi8(gTextMsg_FUSE_BYTE_EXT)
 2331               	.LVL156:
 2332               	.L182:
 2333               	.LBE1136:
 2334               	.LBE1135:
 2335               	.LBE1132:
 2336               	.LBE1131:
 2337               	.LBB1137:
 2338               	.LBB1138:
 2339               	.LBB1139:
 2340               	.LM294:
 2341 0ad2 C901      		movw r24,r18
 2342               	.LVL157:
 2343 0ad4 A0E0      		ldi r26,lo8(0)
 2344 0ad6 B0E0      		ldi r27,hi8(0)
 2345 0ad8 2F5F      		subi r18,lo8(-(1))
 2346 0ada 3F4F      		sbci r19,hi8(-(1))
 2347               	/* #APP */
 2348               	 ;  1298 "stk500boot.c" 1
 2349 0adc ABBF      		out 59, r26
 2350 0ade FC01      		movw r30, r24
 2351 0ae0 8791      		elpm r24, Z+
 2352               		
 2353               	 ;  0 "" 2
 2354               	.LVL158:
 2355               	/* #NOAPP */
 2356               	.LBE1139:
 2357               	.LM295:
 2358 0ae2 8823      		tst r24
 2359 0ae4 01F0      		breq .L180
 2360               	.LBB1140:
 2361               	.LBB1141:
 2362               	.LM296:
 2363 0ae6 8093 C600 		sts 198,r24
 2364               	.L181:
 2365               	.LM297:
 2366 0aea 8091 C000 		lds r24,192
 2367               	.LVL159:
 2368 0aee 86FF      		sbrs r24,6
 2369 0af0 00C0      		rjmp .L181
 2370               	.LM298:
 2371 0af2 8091 C000 		lds r24,192
 2372 0af6 8064      		ori r24,lo8(64)
 2373 0af8 8093 C000 		sts 192,r24
 2374 0afc 00C0      		rjmp .L182
 2375               	.LVL160:
 2376               	.L180:
 2377               	.LBE1141:
 2378               	.LBE1140:
 2379               	.LBE1138:
 2380               	.LBE1137:
 2381               	.LM299:
 2382 0afe 89E0      		ldi r24,lo8(9)
 2383               	.LVL161:
 2384               	/* #APP */
 2385               	 ;  1438 "stk500boot.c" 1
 2386 0b00 E2E0      		ldi r30, 2
 2387 0b02 F0E0      		ldi r31, 0
 2388 0b04 8093 5700 		sts 87, r24
 2389 0b08 8491      		lpm r24, Z
 2390               		
 2391               	 ;  0 "" 2
 2392               	/* #NOAPP */
 2393 0b0a 0E94 0000 		call PrintHexByte
 2394               	.LVL162:
 2395               	.LBB1142:
 2396               	.LBB1143:
 2397               	.LBB1144:
 2398               	.LBB1145:
 2399               	.LM300:
 2400 0b0e 8DE0      		ldi r24,lo8(13)
 2401 0b10 8093 C600 		sts 198,r24
 2402               	.L183:
 2403               	.LM301:
 2404 0b14 8091 C000 		lds r24,192
 2405 0b18 86FF      		sbrs r24,6
 2406 0b1a 00C0      		rjmp .L183
 2407               	.LM302:
 2408 0b1c 8091 C000 		lds r24,192
 2409 0b20 8064      		ori r24,lo8(64)
 2410 0b22 8093 C000 		sts 192,r24
 2411               	.LBE1145:
 2412               	.LBE1144:
 2413               	.LBB1146:
 2414               	.LBB1147:
 2415               	.LM303:
 2416 0b26 8AE0      		ldi r24,lo8(10)
 2417 0b28 8093 C600 		sts 198,r24
 2418               	.L184:
 2419               	.LM304:
 2420 0b2c 8091 C000 		lds r24,192
 2421 0b30 86FF      		sbrs r24,6
 2422 0b32 00C0      		rjmp .L184
 2423               	.LM305:
 2424 0b34 8091 C000 		lds r24,192
 2425 0b38 8064      		ori r24,lo8(64)
 2426 0b3a 8093 C000 		sts 192,r24
 2427 0b3e 20E0      		ldi r18,lo8(gTextMsg_FUSE_BYTE_LOCK)
 2428 0b40 30E0      		ldi r19,hi8(gTextMsg_FUSE_BYTE_LOCK)
 2429               	.LVL163:
 2430               	.L187:
 2431               	.LBE1147:
 2432               	.LBE1146:
 2433               	.LBE1143:
 2434               	.LBE1142:
 2435               	.LBB1148:
 2436               	.LBB1149:
 2437               	.LBB1150:
 2438               	.LM306:
 2439 0b42 C901      		movw r24,r18
 2440               	.LVL164:
 2441 0b44 A0E0      		ldi r26,lo8(0)
 2442 0b46 B0E0      		ldi r27,hi8(0)
 2443 0b48 2F5F      		subi r18,lo8(-(1))
 2444 0b4a 3F4F      		sbci r19,hi8(-(1))
 2445               	/* #APP */
 2446               	 ;  1298 "stk500boot.c" 1
 2447 0b4c ABBF      		out 59, r26
 2448 0b4e FC01      		movw r30, r24
 2449 0b50 8791      		elpm r24, Z+
 2450               		
 2451               	 ;  0 "" 2
 2452               	.LVL165:
 2453               	/* #NOAPP */
 2454               	.LBE1150:
 2455               	.LM307:
 2456 0b52 8823      		tst r24
 2457 0b54 01F0      		breq .L185
 2458               	.LBB1151:
 2459               	.LBB1152:
 2460               	.LM308:
 2461 0b56 8093 C600 		sts 198,r24
 2462               	.L186:
 2463               	.LM309:
 2464 0b5a 8091 C000 		lds r24,192
 2465               	.LVL166:
 2466 0b5e 86FF      		sbrs r24,6
 2467 0b60 00C0      		rjmp .L186
 2468               	.LM310:
 2469 0b62 8091 C000 		lds r24,192
 2470 0b66 8064      		ori r24,lo8(64)
 2471 0b68 8093 C000 		sts 192,r24
 2472 0b6c 00C0      		rjmp .L187
 2473               	.LVL167:
 2474               	.L185:
 2475               	.LBE1152:
 2476               	.LBE1151:
 2477               	.LBE1149:
 2478               	.LBE1148:
 2479               	.LM311:
 2480 0b6e 89E0      		ldi r24,lo8(9)
 2481               	.LVL168:
 2482               	/* #APP */
 2483               	 ;  1443 "stk500boot.c" 1
 2484 0b70 E1E0      		ldi r30, 1
 2485 0b72 F0E0      		ldi r31, 0
 2486 0b74 8093 5700 		sts 87, r24
 2487 0b78 8491      		lpm r24, Z
 2488               		
 2489               	 ;  0 "" 2
 2490               	/* #NOAPP */
 2491 0b7a 0E94 0000 		call PrintHexByte
 2492               	.LVL169:
 2493               	.LBB1153:
 2494               	.LBB1154:
 2495               	.LBB1155:
 2496               	.LBB1156:
 2497               	.LM312:
 2498 0b7e 8DE0      		ldi r24,lo8(13)
 2499 0b80 8093 C600 		sts 198,r24
 2500               	.L188:
 2501               	.LM313:
 2502 0b84 8091 C000 		lds r24,192
 2503 0b88 86FF      		sbrs r24,6
 2504 0b8a 00C0      		rjmp .L188
 2505               	.LM314:
 2506 0b8c 8091 C000 		lds r24,192
 2507 0b90 8064      		ori r24,lo8(64)
 2508 0b92 8093 C000 		sts 192,r24
 2509               	.LBE1156:
 2510               	.LBE1155:
 2511               	.LBB1157:
 2512               	.LBB1158:
 2513               	.LM315:
 2514 0b96 8AE0      		ldi r24,lo8(10)
 2515 0b98 8093 C600 		sts 198,r24
 2516               	.L189:
 2517               	.LM316:
 2518 0b9c 8091 C000 		lds r24,192
 2519 0ba0 86FF      		sbrs r24,6
 2520 0ba2 00C0      		rjmp .L189
 2521               	.LM317:
 2522 0ba4 8091 C000 		lds r24,192
 2523 0ba8 8064      		ori r24,lo8(64)
 2524 0baa 8093 C000 		sts 192,r24
 2525 0bae 00C0      		rjmp .L512
 2526               	.LVL170:
 2527               	.L526:
 2528               	.LBE1158:
 2529               	.LBE1157:
 2530               	.LBE1154:
 2531               	.LBE1153:
 2532               	.LBE1072:
 2533               	.LBE1071:
 2534               	.LM318:
 2535 0bb0 80E0      		ldi r24,lo8(gTextMsg_HELP_MSG_AT)
 2536 0bb2 90E0      		ldi r25,hi8(gTextMsg_HELP_MSG_AT)
 2537 0bb4 62E0      		ldi r22,lo8(2)
 2538 0bb6 0E94 0000 		call PrintFromPROGMEMln
 2539               	.LVL171:
 2540               	.LBB1159:
 2541               	.LBB1160:
 2542               	.LM319:
 2543 0bba 80E0      		ldi r24,lo8(gTextMsg_WriteToEEprom)
 2544 0bbc 90E0      		ldi r25,hi8(gTextMsg_WriteToEEprom)
 2545 0bbe 60E0      		ldi r22,lo8(0)
 2546 0bc0 0E94 0000 		call PrintFromPROGMEMln
 2547               	.LBB1161:
 2548               	.LBB1162:
 2549               	.LBB1163:
 2550               	.LBB1164:
 2551               	.LM320:
 2552 0bc4 8DE0      		ldi r24,lo8(13)
 2553 0bc6 8093 C600 		sts 198,r24
 2554               	.L190:
 2555               	.LM321:
 2556 0bca 8091 C000 		lds r24,192
 2557 0bce 86FF      		sbrs r24,6
 2558 0bd0 00C0      		rjmp .L190
 2559               	.LM322:
 2560 0bd2 8091 C000 		lds r24,192
 2561 0bd6 8064      		ori r24,lo8(64)
 2562 0bd8 8093 C000 		sts 192,r24
 2563               	.LBE1164:
 2564               	.LBE1163:
 2565               	.LBB1165:
 2566               	.LBB1166:
 2567               	.LM323:
 2568 0bdc 8AE0      		ldi r24,lo8(10)
 2569 0bde 8093 C600 		sts 198,r24
 2570               	.L191:
 2571               	.LM324:
 2572 0be2 8091 C000 		lds r24,192
 2573 0be6 86FF      		sbrs r24,6
 2574 0be8 00C0      		rjmp .L191
 2575               	.LM325:
 2576 0bea 8091 C000 		lds r24,192
 2577 0bee 8064      		ori r24,lo8(64)
 2578 0bf0 8093 C000 		sts 192,r24
 2579 0bf4 40E0      		ldi r20,lo8(0)
 2580 0bf6 50E0      		ldi r21,hi8(0)
 2581               	.LVL172:
 2582 0bf8 00C0      		rjmp .L192
 2583               	.LVL173:
 2584               	.L397:
 2585               	.LBE1166:
 2586               	.LBE1165:
 2587               	.LBE1162:
 2588               	.LBE1161:
 2589               	.LBB1167:
 2590               	.LBB1168:
 2591               	.LM326:
 2592 0bfa F999      		sbic 63-32,1
 2593 0bfc 00C0      		rjmp .L397
 2594               	.LM327:
 2595 0bfe 1FBA      		out 63-32,__zero_reg__
 2596               	.LM328:
 2597 0c00 52BD      		out (65)+1-32,r21
 2598 0c02 41BD      		out 65-32,r20
 2599               	.LM329:
 2600 0c04 80BD      		out 64-32,r24
 2601               	.LM330:
 2602               	/* #APP */
 2603               	 ;  324 "/Applications/Arduino.app/Contents/Resources/Java/hardware/tools/avr/bin/../lib/gcc/avr/4.
 2604               		/* START EEPROM WRITE CRITICAL SECTION */
 2605 0c06 0FB6      		in	r0, 63		
 2606 0c08 F894      		cli				
 2607 0c0a FA9A      		sbi	31, 2	
 2608 0c0c F99A      		sbi	31, 1	
 2609 0c0e 0FBE      		out	63, r0		
 2610               		/* END EEPROM WRITE CRITICAL SECTION */
 2611               	 ;  0 "" 2
 2612               	/* #NOAPP */
 2613               	.LBE1168:
 2614               	.LBE1167:
 2615               	.LM331:
 2616 0c10 8823      		tst r24
 2617 0c12 01F4      		brne .L194
 2618 0c14 20E0      		ldi r18,lo8(gTextMsg_SPACE)
 2619 0c16 30E0      		ldi r19,hi8(gTextMsg_SPACE)
 2620               	.LVL174:
 2621               	.L197:
 2622               	.LBB1169:
 2623               	.LBB1170:
 2624               	.LBB1171:
 2625               	.LM332:
 2626 0c18 C901      		movw r24,r18
 2627               	.LVL175:
 2628 0c1a A0E0      		ldi r26,lo8(0)
 2629 0c1c B0E0      		ldi r27,hi8(0)
 2630 0c1e 2F5F      		subi r18,lo8(-(1))
 2631 0c20 3F4F      		sbci r19,hi8(-(1))
 2632               	/* #APP */
 2633               	 ;  1298 "stk500boot.c" 1
 2634 0c22 ABBF      		out 59, r26
 2635 0c24 FC01      		movw r30, r24
 2636 0c26 8791      		elpm r24, Z+
 2637               		
 2638               	 ;  0 "" 2
 2639               	.LVL176:
 2640               	/* #NOAPP */
 2641               	.LBE1171:
 2642               	.LM333:
 2643 0c28 8823      		tst r24
 2644 0c2a 01F0      		breq .L195
 2645               	.LBB1172:
 2646               	.LBB1173:
 2647               	.LM334:
 2648 0c2c 8093 C600 		sts 198,r24
 2649               	.L196:
 2650               	.LM335:
 2651 0c30 8091 C000 		lds r24,192
 2652               	.LVL177:
 2653 0c34 86FF      		sbrs r24,6
 2654 0c36 00C0      		rjmp .L196
 2655               	.LM336:
 2656 0c38 8091 C000 		lds r24,192
 2657 0c3c 8064      		ori r24,lo8(64)
 2658 0c3e 8093 C000 		sts 192,r24
 2659 0c42 00C0      		rjmp .L197
 2660               	.LVL178:
 2661               	.L194:
 2662               	.LBE1173:
 2663               	.LBE1172:
 2664               	.LBE1170:
 2665               	.LBE1169:
 2666               	.LBB1174:
 2667               	.LBB1175:
 2668               	.LM337:
 2669 0c44 8093 C600 		sts 198,r24
 2670               	.L198:
 2671               	.LM338:
 2672 0c48 8091 C000 		lds r24,192
 2673               	.LVL179:
 2674 0c4c 86FF      		sbrs r24,6
 2675 0c4e 00C0      		rjmp .L198
 2676               	.LM339:
 2677 0c50 8091 C000 		lds r24,192
 2678 0c54 8064      		ori r24,lo8(64)
 2679 0c56 8093 C000 		sts 192,r24
 2680               	.LVL180:
 2681               	.L195:
 2682               	.LBE1175:
 2683               	.LBE1174:
 2684               	.LM340:
 2685 0c5a 4F5F      		subi r20,lo8(-(1))
 2686 0c5c 5F4F      		sbci r21,hi8(-(1))
 2687               	.L192:
 2688               	.LBB1176:
 2689               	.LM341:
 2690 0c5e CA01      		movw r24,r20
 2691               	.LVL181:
 2692 0c60 8050      		subi r24,lo8(-(gTextMsg_Explorer))
 2693 0c62 9040      		sbci r25,hi8(-(gTextMsg_Explorer))
 2694 0c64 A0E0      		ldi r26,lo8(0)
 2695 0c66 B0E0      		ldi r27,hi8(0)
 2696               	.LVL182:
 2697               	/* #APP */
 2698               	 ;  1558 "stk500boot.c" 1
 2699 0c68 ABBF      		out 59, r26
 2700 0c6a FC01      		movw r30, r24
 2701 0c6c 8791      		elpm r24, Z+
 2702               		
 2703               	 ;  0 "" 2
 2704               	.LVL183:
 2705               	/* #NOAPP */
 2706               	.LBE1176:
 2707 0c6e 8A32      		cpi r24,lo8(42)
 2708 0c70 01F0      		breq .L199
 2709 0c72 92E0      		ldi r25,hi8(512)
 2710 0c74 4030      		cpi r20,lo8(512)
 2711 0c76 5907      		cpc r21,r25
 2712 0c78 01F0      		breq .+2
 2713 0c7a 00C0      		rjmp .L397
 2714               	.L199:
 2715               	.LBB1177:
 2716               	.LBB1178:
 2717               	.LBB1179:
 2718               	.LBB1180:
 2719               	.LM342:
 2720 0c7c 8DE0      		ldi r24,lo8(13)
 2721               	.LVL184:
 2722 0c7e 8093 C600 		sts 198,r24
 2723               	.L200:
 2724               	.LM343:
 2725 0c82 8091 C000 		lds r24,192
 2726 0c86 86FF      		sbrs r24,6
 2727 0c88 00C0      		rjmp .L200
 2728               	.LM344:
 2729 0c8a 8091 C000 		lds r24,192
 2730 0c8e 8064      		ori r24,lo8(64)
 2731 0c90 8093 C000 		sts 192,r24
 2732               	.LBE1180:
 2733               	.LBE1179:
 2734               	.LBB1181:
 2735               	.LBB1182:
 2736               	.LM345:
 2737 0c94 8AE0      		ldi r24,lo8(10)
 2738 0c96 8093 C600 		sts 198,r24
 2739               	.L201:
 2740               	.LM346:
 2741 0c9a 8091 C000 		lds r24,192
 2742 0c9e 86FF      		sbrs r24,6
 2743 0ca0 00C0      		rjmp .L201
 2744               	.LM347:
 2745 0ca2 8091 C000 		lds r24,192
 2746 0ca6 8064      		ori r24,lo8(64)
 2747 0ca8 8093 C000 		sts 192,r24
 2748               	.LBE1182:
 2749               	.LBE1181:
 2750               	.LBE1178:
 2751               	.LBE1177:
 2752               	.LBB1183:
 2753               	.LBB1184:
 2754               	.LBB1185:
 2755               	.LBB1186:
 2756               	.LM348:
 2757 0cac 8DE0      		ldi r24,lo8(13)
 2758 0cae 8093 C600 		sts 198,r24
 2759               	.L202:
 2760               	.LM349:
 2761 0cb2 8091 C000 		lds r24,192
 2762 0cb6 86FF      		sbrs r24,6
 2763 0cb8 00C0      		rjmp .L202
 2764               	.LM350:
 2765 0cba 8091 C000 		lds r24,192
 2766 0cbe 8064      		ori r24,lo8(64)
 2767 0cc0 8093 C000 		sts 192,r24
 2768               	.LBE1186:
 2769               	.LBE1185:
 2770               	.LBB1187:
 2771               	.LBB1188:
 2772               	.LM351:
 2773 0cc4 8AE0      		ldi r24,lo8(10)
 2774 0cc6 8093 C600 		sts 198,r24
 2775               	.L203:
 2776               	.LM352:
 2777 0cca 8091 C000 		lds r24,192
 2778 0cce 86FF      		sbrs r24,6
 2779 0cd0 00C0      		rjmp .L203
 2780               	.LM353:
 2781 0cd2 8091 C000 		lds r24,192
 2782 0cd6 8064      		ori r24,lo8(64)
 2783 0cd8 8093 C000 		sts 192,r24
 2784               	.LBE1188:
 2785               	.LBE1187:
 2786               	.LBE1184:
 2787               	.LBE1183:
 2788               	.LM354:
 2789 0cdc 80E0      		ldi r24,lo8(gTextMsg_ReadingEEprom)
 2790 0cde 90E0      		ldi r25,hi8(gTextMsg_ReadingEEprom)
 2791 0ce0 60E0      		ldi r22,lo8(0)
 2792 0ce2 0E94 0000 		call PrintFromPROGMEMln
 2793               	.LVL185:
 2794               	.LBB1189:
 2795               	.LBB1190:
 2796               	.LBB1191:
 2797               	.LBB1192:
 2798               	.LM355:
 2799 0ce6 8DE0      		ldi r24,lo8(13)
 2800 0ce8 8093 C600 		sts 198,r24
 2801               	.L204:
 2802               	.LM356:
 2803 0cec 8091 C000 		lds r24,192
 2804 0cf0 86FF      		sbrs r24,6
 2805 0cf2 00C0      		rjmp .L204
 2806               	.LM357:
 2807 0cf4 8091 C000 		lds r24,192
 2808 0cf8 8064      		ori r24,lo8(64)
 2809 0cfa 8093 C000 		sts 192,r24
 2810               	.LBE1192:
 2811               	.LBE1191:
 2812               	.LBB1193:
 2813               	.LBB1194:
 2814               	.LM358:
 2815 0cfe 8AE0      		ldi r24,lo8(10)
 2816 0d00 8093 C600 		sts 198,r24
 2817               	.L205:
 2818               	.LM359:
 2819 0d04 8091 C000 		lds r24,192
 2820 0d08 86FF      		sbrs r24,6
 2821 0d0a 00C0      		rjmp .L205
 2822               	.LM360:
 2823 0d0c 8091 C000 		lds r24,192
 2824 0d10 8064      		ori r24,lo8(64)
 2825 0d12 8093 C000 		sts 192,r24
 2826 0d16 40E0      		ldi r20,lo8(0)
 2827 0d18 50E0      		ldi r21,hi8(0)
 2828               	.LVL186:
 2829 0d1a 00E0      		ldi r16,lo8(0)
 2830 0d1c 10E0      		ldi r17,hi8(0)
 2831 0d1e 00C0      		rjmp .L206
 2832               	.LVL187:
 2833               	.L396:
 2834               	.LBE1194:
 2835               	.LBE1193:
 2836               	.LBE1190:
 2837               	.LBE1189:
 2838               	.LBB1195:
 2839               	.LBB1196:
 2840               	.LM361:
 2841 0d20 F999      		sbic 63-32,1
 2842 0d22 00C0      		rjmp .L396
 2843               	.LM362:
 2844 0d24 52BD      		out (65)+1-32,r21
 2845 0d26 41BD      		out 65-32,r20
 2846               	.LM363:
 2847               	/* #APP */
 2848               	 ;  208 "/Applications/Arduino.app/Contents/Resources/Java/hardware/tools/avr/bin/../lib/gcc/avr/4.
 2849               		/* START EEPROM READ CRITICAL SECTION */ 
 2850 0d28 F89A      		sbi 31, 0 
 2851 0d2a 60B5      		in r22, 32 
 2852               		/* END EEPROM READ CRITICAL SECTION */ 
 2853               		
 2854               	 ;  0 "" 2
 2855               	/* #NOAPP */
 2856               	.LBE1196:
 2857               	.LBE1195:
 2858               	.LM364:
 2859 0d2c 6623      		tst r22
 2860 0d2e 01F4      		brne .L208
 2861 0d30 20E0      		ldi r18,lo8(gTextMsg_SPACE)
 2862 0d32 30E0      		ldi r19,hi8(gTextMsg_SPACE)
 2863               	.LVL188:
 2864               	.L211:
 2865               	.LBB1197:
 2866               	.LBB1198:
 2867               	.LBB1199:
 2868               	.LM365:
 2869 0d34 C901      		movw r24,r18
 2870               	.LVL189:
 2871 0d36 A0E0      		ldi r26,lo8(0)
 2872 0d38 B0E0      		ldi r27,hi8(0)
 2873 0d3a 2F5F      		subi r18,lo8(-(1))
 2874 0d3c 3F4F      		sbci r19,hi8(-(1))
 2875               	/* #APP */
 2876               	 ;  1298 "stk500boot.c" 1
 2877 0d3e ABBF      		out 59, r26
 2878 0d40 FC01      		movw r30, r24
 2879 0d42 8791      		elpm r24, Z+
 2880               		
 2881               	 ;  0 "" 2
 2882               	.LVL190:
 2883               	/* #NOAPP */
 2884               	.LBE1199:
 2885               	.LM366:
 2886 0d44 8823      		tst r24
 2887 0d46 01F0      		breq .L209
 2888               	.LBB1200:
 2889               	.LBB1201:
 2890               	.LM367:
 2891 0d48 8093 C600 		sts 198,r24
 2892               	.L210:
 2893               	.LM368:
 2894 0d4c 8091 C000 		lds r24,192
 2895               	.LVL191:
 2896 0d50 86FF      		sbrs r24,6
 2897 0d52 00C0      		rjmp .L210
 2898               	.LM369:
 2899 0d54 8091 C000 		lds r24,192
 2900 0d58 8064      		ori r24,lo8(64)
 2901 0d5a 8093 C000 		sts 192,r24
 2902 0d5e 00C0      		rjmp .L211
 2903               	.LVL192:
 2904               	.L208:
 2905               	.LBE1201:
 2906               	.LBE1200:
 2907               	.LBE1198:
 2908               	.LBE1197:
 2909               	.LBB1202:
 2910               	.LBB1203:
 2911               	.LM370:
 2912 0d60 6093 C600 		sts 198,r22
 2913               	.L212:
 2914               	.LM371:
 2915 0d64 8091 C000 		lds r24,192
 2916 0d68 86FF      		sbrs r24,6
 2917 0d6a 00C0      		rjmp .L212
 2918               	.LM372:
 2919 0d6c 8091 C000 		lds r24,192
 2920 0d70 8064      		ori r24,lo8(64)
 2921 0d72 8093 C000 		sts 192,r24
 2922               	.LVL193:
 2923               	.L209:
 2924               	.LBE1203:
 2925               	.LBE1202:
 2926               	.LM373:
 2927 0d76 6717      		cp r22,r23
 2928 0d78 01F0      		breq .L213
 2929               	.LM374:
 2930 0d7a 0F5F      		subi r16,lo8(-(1))
 2931 0d7c 1F4F      		sbci r17,hi8(-(1))
 2932               	.L213:
 2933               	.LM375:
 2934 0d7e 4F5F      		subi r20,lo8(-(1))
 2935 0d80 5F4F      		sbci r21,hi8(-(1))
 2936               	.L206:
 2937               	.LBB1204:
 2938               	.LM376:
 2939 0d82 CA01      		movw r24,r20
 2940               	.LVL194:
 2941 0d84 8050      		subi r24,lo8(-(gTextMsg_Explorer))
 2942 0d86 9040      		sbci r25,hi8(-(gTextMsg_Explorer))
 2943 0d88 A0E0      		ldi r26,lo8(0)
 2944 0d8a B0E0      		ldi r27,hi8(0)
 2945               	.LVL195:
 2946               	/* #APP */
 2947               	 ;  1583 "stk500boot.c" 1
 2948 0d8c ABBF      		out 59, r26
 2949 0d8e FC01      		movw r30, r24
 2950 0d90 7791      		elpm r23, Z+
 2951               		
 2952               	 ;  0 "" 2
 2953               	/* #NOAPP */
 2954               	.LBE1204:
 2955 0d92 7A32      		cpi r23,lo8(42)
 2956 0d94 01F0      		breq .L214
 2957 0d96 A2E0      		ldi r26,hi8(512)
 2958 0d98 4030      		cpi r20,lo8(512)
 2959 0d9a 5A07      		cpc r21,r26
 2960 0d9c 01F0      		breq .+2
 2961 0d9e 00C0      		rjmp .L396
 2962               	.L214:
 2963               	.LBB1205:
 2964               	.LBB1206:
 2965               	.LBB1207:
 2966               	.LBB1208:
 2967               	.LM377:
 2968 0da0 8DE0      		ldi r24,lo8(13)
 2969 0da2 8093 C600 		sts 198,r24
 2970               	.L215:
 2971               	.LM378:
 2972 0da6 8091 C000 		lds r24,192
 2973 0daa 86FF      		sbrs r24,6
 2974 0dac 00C0      		rjmp .L215
 2975               	.LM379:
 2976 0dae 8091 C000 		lds r24,192
 2977 0db2 8064      		ori r24,lo8(64)
 2978 0db4 8093 C000 		sts 192,r24
 2979               	.LBE1208:
 2980               	.LBE1207:
 2981               	.LBB1209:
 2982               	.LBB1210:
 2983               	.LM380:
 2984 0db8 8AE0      		ldi r24,lo8(10)
 2985 0dba 8093 C600 		sts 198,r24
 2986               	.L216:
 2987               	.LM381:
 2988 0dbe 8091 C000 		lds r24,192
 2989 0dc2 86FF      		sbrs r24,6
 2990 0dc4 00C0      		rjmp .L216
 2991               	.LM382:
 2992 0dc6 8091 C000 		lds r24,192
 2993 0dca 8064      		ori r24,lo8(64)
 2994 0dcc 8093 C000 		sts 192,r24
 2995               	.LBE1210:
 2996               	.LBE1209:
 2997               	.LBE1206:
 2998               	.LBE1205:
 2999               	.LBB1211:
 3000               	.LBB1212:
 3001               	.LBB1213:
 3002               	.LBB1214:
 3003               	.LM383:
 3004 0dd0 8DE0      		ldi r24,lo8(13)
 3005 0dd2 8093 C600 		sts 198,r24
 3006               	.L217:
 3007               	.LM384:
 3008 0dd6 8091 C000 		lds r24,192
 3009 0dda 86FF      		sbrs r24,6
 3010 0ddc 00C0      		rjmp .L217
 3011               	.LM385:
 3012 0dde 8091 C000 		lds r24,192
 3013 0de2 8064      		ori r24,lo8(64)
 3014 0de4 8093 C000 		sts 192,r24
 3015               	.LBE1214:
 3016               	.LBE1213:
 3017               	.LBB1215:
 3018               	.LBB1216:
 3019               	.LM386:
 3020 0de8 8AE0      		ldi r24,lo8(10)
 3021 0dea 8093 C600 		sts 198,r24
 3022               	.L218:
 3023               	.LM387:
 3024 0dee 8091 C000 		lds r24,192
 3025 0df2 86FF      		sbrs r24,6
 3026 0df4 00C0      		rjmp .L218
 3027               	.LM388:
 3028 0df6 8091 C000 		lds r24,192
 3029 0dfa 8064      		ori r24,lo8(64)
 3030 0dfc 8093 C000 		sts 192,r24
 3031 0e00 20E0      		ldi r18,lo8(gTextMsg_EEPROMerrorCnt)
 3032 0e02 30E0      		ldi r19,hi8(gTextMsg_EEPROMerrorCnt)
 3033               	.LVL196:
 3034               	.L221:
 3035               	.LBE1216:
 3036               	.LBE1215:
 3037               	.LBE1212:
 3038               	.LBE1211:
 3039               	.LBB1217:
 3040               	.LBB1218:
 3041               	.LBB1219:
 3042               	.LM389:
 3043 0e04 C901      		movw r24,r18
 3044               	.LVL197:
 3045 0e06 A0E0      		ldi r26,lo8(0)
 3046 0e08 B0E0      		ldi r27,hi8(0)
 3047 0e0a 2F5F      		subi r18,lo8(-(1))
 3048 0e0c 3F4F      		sbci r19,hi8(-(1))
 3049               	/* #APP */
 3050               	 ;  1298 "stk500boot.c" 1
 3051 0e0e ABBF      		out 59, r26
 3052 0e10 FC01      		movw r30, r24
 3053 0e12 8791      		elpm r24, Z+
 3054               		
 3055               	 ;  0 "" 2
 3056               	.LVL198:
 3057               	/* #NOAPP */
 3058               	.LBE1219:
 3059               	.LM390:
 3060 0e14 8823      		tst r24
 3061 0e16 01F0      		breq .L219
 3062               	.LBB1220:
 3063               	.LBB1221:
 3064               	.LM391:
 3065 0e18 8093 C600 		sts 198,r24
 3066               	.L220:
 3067               	.LM392:
 3068 0e1c 8091 C000 		lds r24,192
 3069               	.LVL199:
 3070 0e20 86FF      		sbrs r24,6
 3071 0e22 00C0      		rjmp .L220
 3072               	.LM393:
 3073 0e24 8091 C000 		lds r24,192
 3074 0e28 8064      		ori r24,lo8(64)
 3075 0e2a 8093 C000 		sts 192,r24
 3076 0e2e 00C0      		rjmp .L221
 3077               	.LVL200:
 3078               	.L219:
 3079               	.LBE1221:
 3080               	.LBE1220:
 3081               	.LBE1218:
 3082               	.LBE1217:
 3083               	.LM394:
 3084 0e30 C801      		movw r24,r16
 3085               	.LVL201:
 3086 0e32 61E0      		ldi r22,lo8(1)
 3087 0e34 70E0      		ldi r23,hi8(1)
 3088               	.LVL202:
 3089 0e36 0E94 0000 		call PrintDecInt
 3090               	.LVL203:
 3091               	.LBB1222:
 3092               	.LBB1223:
 3093               	.LBB1224:
 3094               	.LBB1225:
 3095               	.LM395:
 3096 0e3a 8DE0      		ldi r24,lo8(13)
 3097 0e3c 8093 C600 		sts 198,r24
 3098               	.L222:
 3099               	.LM396:
 3100 0e40 8091 C000 		lds r24,192
 3101 0e44 86FF      		sbrs r24,6
 3102 0e46 00C0      		rjmp .L222
 3103               	.LM397:
 3104 0e48 8091 C000 		lds r24,192
 3105 0e4c 8064      		ori r24,lo8(64)
 3106 0e4e 8093 C000 		sts 192,r24
 3107               	.LBE1225:
 3108               	.LBE1224:
 3109               	.LBB1226:
 3110               	.LBB1227:
 3111               	.LM398:
 3112 0e52 8AE0      		ldi r24,lo8(10)
 3113 0e54 8093 C600 		sts 198,r24
 3114               	.L223:
 3115               	.LM399:
 3116 0e58 8091 C000 		lds r24,192
 3117 0e5c 86FF      		sbrs r24,6
 3118 0e5e 00C0      		rjmp .L223
 3119               	.LM400:
 3120 0e60 8091 C000 		lds r24,192
 3121 0e64 8064      		ori r24,lo8(64)
 3122 0e66 8093 C000 		sts 192,r24
 3123               	.LBE1227:
 3124               	.LBE1226:
 3125               	.LBE1223:
 3126               	.LBE1222:
 3127               	.LBB1228:
 3128               	.LBB1229:
 3129               	.LBB1230:
 3130               	.LBB1231:
 3131               	.LM401:
 3132 0e6a 8DE0      		ldi r24,lo8(13)
 3133 0e6c 8093 C600 		sts 198,r24
 3134               	.L224:
 3135               	.LM402:
 3136 0e70 8091 C000 		lds r24,192
 3137 0e74 86FF      		sbrs r24,6
 3138 0e76 00C0      		rjmp .L224
 3139               	.LM403:
 3140 0e78 8091 C000 		lds r24,192
 3141 0e7c 8064      		ori r24,lo8(64)
 3142 0e7e 8093 C000 		sts 192,r24
 3143               	.LBE1231:
 3144               	.LBE1230:
 3145               	.LBB1232:
 3146               	.LBB1233:
 3147               	.LM404:
 3148 0e82 8AE0      		ldi r24,lo8(10)
 3149 0e84 8093 C600 		sts 198,r24
 3150               	.L225:
 3151               	.LM405:
 3152 0e88 8091 C000 		lds r24,192
 3153 0e8c 86FF      		sbrs r24,6
 3154 0e8e 00C0      		rjmp .L225
 3155               	.LM406:
 3156 0e90 8091 C000 		lds r24,192
 3157 0e94 8064      		ori r24,lo8(64)
 3158 0e96 8093 C000 		sts 192,r24
 3159               	.L519:
 3160               	.LBE1233:
 3161               	.LBE1232:
 3162               	.LBE1229:
 3163               	.LBE1228:
 3164               	.LM407:
 3165 0e9a 1092 0000 		sts gEepromIndex,__zero_reg__
 3166 0e9e 1092 0000 		sts (gEepromIndex)+1,__zero_reg__
 3167 0ea2 1092 0000 		sts (gEepromIndex)+2,__zero_reg__
 3168 0ea6 1092 0000 		sts (gEepromIndex)+3,__zero_reg__
 3169 0eaa 00C0      		rjmp .L512
 3170               	.LVL204:
 3171               	.L135:
 3172               	.LBE1160:
 3173               	.LBE1159:
 3174               	.LM408:
 3175 0eac 80E0      		ldi r24,lo8(gTextMsg_HELP_MSG_B)
 3176 0eae 90E0      		ldi r25,hi8(gTextMsg_HELP_MSG_B)
 3177 0eb0 62E0      		ldi r22,lo8(2)
 3178 0eb2 0E94 0000 		call PrintFromPROGMEMln
 3179               	.LVL205:
 3180               	.LBB1234:
 3181               	.LBB1235:
 3182               	.LM409:
 3183 0eb6 279A      		sbi 36-32,7
 3184               	.LM410:
 3185 0eb8 2F9A      		sbi 37-32,7
 3186 0eba 00C0      		rjmp .L226
 3187               	.LVL206:
 3188               	.L229:
 3189               	.LM411:
 3190 0ebc 2F98      		cbi 37-32,7
 3191 0ebe 80E0      		ldi r24,lo8(0)
 3192 0ec0 90E0      		ldi r25,hi8(0)
 3193               	.LVL207:
 3194               	.L227:
 3195               	.LBB1236:
 3196               	.LBB1237:
 3197               	.LBB1238:
 3198               	.LBB1239:
 3199               	.LBB1240:
 3200               	.LBB1241:
 3201               	.LM412:
 3202 0ec2 E0ED      		ldi r30,lo8(2000)
 3203 0ec4 F7E0      		ldi r31,hi8(2000)
 3204               	.LVL208:
 3205               	/* #APP */
 3206               	 ;  105 "/Applications/Arduino.app/Contents/Resources/Java/hardware/tools/avr/bin/../lib/gcc/avr/4.
 3207 0ec6 3197      		1: sbiw r30,1
 3208 0ec8 01F4      		brne 1b
 3209               	 ;  0 "" 2
 3210               	/* #NOAPP */
 3211               	.LBE1241:
 3212               	.LBE1240:
 3213               	.LBE1239:
 3214               	.LBE1238:
 3215               	.LM413:
 3216 0eca 0196      		adiw r24,1
 3217 0ecc 8436      		cpi r24,100
 3218 0ece 9105      		cpc r25,__zero_reg__
 3219 0ed0 01F4      		brne .L227
 3220               	.LBE1237:
 3221               	.LBE1236:
 3222               	.LM414:
 3223 0ed2 2F9A      		sbi 37-32,7
 3224 0ed4 80E0      		ldi r24,lo8(0)
 3225 0ed6 90E0      		ldi r25,hi8(0)
 3226               	.LVL209:
 3227               	.L228:
 3228               	.LBB1242:
 3229               	.LBB1243:
 3230               	.LBB1244:
 3231               	.LBB1245:
 3232               	.LBB1246:
 3233               	.LBB1247:
 3234               	.LM415:
 3235 0ed8 E0ED      		ldi r30,lo8(2000)
 3236 0eda F7E0      		ldi r31,hi8(2000)
 3237               	.LVL210:
 3238               	/* #APP */
 3239               	 ;  105 "/Applications/Arduino.app/Contents/Resources/Java/hardware/tools/avr/bin/../lib/gcc/avr/4.
 3240 0edc 3197      		1: sbiw r30,1
 3241 0ede 01F4      		brne 1b
 3242               	 ;  0 "" 2
 3243               	/* #NOAPP */
 3244               	.LBE1247:
 3245               	.LBE1246:
 3246               	.LBE1245:
 3247               	.LBE1244:
 3248               	.LM416:
 3249 0ee0 0196      		adiw r24,1
 3250 0ee2 8436      		cpi r24,100
 3251 0ee4 9105      		cpc r25,__zero_reg__
 3252 0ee6 01F4      		brne .L228
 3253               	.L226:
 3254               	.LBE1243:
 3255               	.LBE1242:
 3256               	.LBB1248:
 3257               	.LBB1249:
 3258               	.LM417:
 3259 0ee8 8091 C000 		lds r24,192
 3260               	.LVL211:
 3261               	.LBE1249:
 3262               	.LBE1248:
 3263               	.LM418:
 3264 0eec 87FF      		sbrs r24,7
 3265 0eee 00C0      		rjmp .L229
 3266               	.L395:
 3267               	.LBB1250:
 3268               	.LBB1251:
 3269               	.LM419:
 3270 0ef0 8091 C000 		lds r24,192
 3271 0ef4 87FF      		sbrs r24,7
 3272 0ef6 00C0      		rjmp .L395
 3273 0ef8 00C0      		rjmp .L520
 3274               	.LVL212:
 3275               	.L136:
 3276               	.LBE1251:
 3277               	.LBE1250:
 3278               	.LBE1235:
 3279               	.LBE1234:
 3280               	.LM420:
 3281 0efa 80E0      		ldi r24,lo8(gTextMsg_HELP_MSG_E)
 3282 0efc 90E0      		ldi r25,hi8(gTextMsg_HELP_MSG_E)
 3283 0efe 62E0      		ldi r22,lo8(2)
 3284 0f00 0E94 0000 		call PrintFromPROGMEMln
 3285               	.LVL213:
 3286               	.LM421:
 3287 0f04 4091 0000 		lds r20,gEepromIndex
 3288 0f08 5091 0000 		lds r21,(gEepromIndex)+1
 3289 0f0c 6091 0000 		lds r22,(gEepromIndex)+2
 3290 0f10 7091 0000 		lds r23,(gEepromIndex)+3
 3291 0f14 81E0      		ldi r24,lo8(1)
 3292 0f16 20E1      		ldi r18,lo8(16)
 3293 0f18 0E94 0000 		call DumpHex
 3294               	.LM422:
 3295 0f1c 8091 0000 		lds r24,gEepromIndex
 3296 0f20 9091 0000 		lds r25,(gEepromIndex)+1
 3297 0f24 A091 0000 		lds r26,(gEepromIndex)+2
 3298 0f28 B091 0000 		lds r27,(gEepromIndex)+3
 3299 0f2c 8050      		subi r24,lo8(-(256))
 3300 0f2e 9F4F      		sbci r25,hi8(-(256))
 3301 0f30 AF4F      		sbci r26,hlo8(-(256))
 3302 0f32 BF4F      		sbci r27,hhi8(-(256))
 3303 0f34 8093 0000 		sts gEepromIndex,r24
 3304 0f38 9093 0000 		sts (gEepromIndex)+1,r25
 3305 0f3c A093 0000 		sts (gEepromIndex)+2,r26
 3306 0f40 B093 0000 		sts (gEepromIndex)+3,r27
 3307               	.LM423:
 3308 0f44 8050      		subi r24,lo8(4096)
 3309 0f46 9041      		sbci r25,hi8(4096)
 3310 0f48 A040      		sbci r26,hlo8(4096)
 3311 0f4a B040      		sbci r27,hhi8(4096)
 3312 0f4c 00F4      		brsh .+2
 3313 0f4e 00C0      		rjmp .L512
 3314 0f50 00C0      		rjmp .L519
 3315               	.LVL214:
 3316               	.L527:
 3317               	.LM424:
 3318 0f52 80E0      		ldi r24,lo8(gTextMsg_HELP_MSG_F)
 3319 0f54 90E0      		ldi r25,hi8(gTextMsg_HELP_MSG_F)
 3320 0f56 62E0      		ldi r22,lo8(2)
 3321 0f58 0E94 0000 		call PrintFromPROGMEMln
 3322               	.LVL215:
 3323               	.LM425:
 3324 0f5c 4091 0000 		lds r20,gFlashIndex
 3325 0f60 5091 0000 		lds r21,(gFlashIndex)+1
 3326 0f64 6091 0000 		lds r22,(gFlashIndex)+2
 3327 0f68 7091 0000 		lds r23,(gFlashIndex)+3
 3328 0f6c 80E0      		ldi r24,lo8(0)
 3329 0f6e 20E1      		ldi r18,lo8(16)
 3330 0f70 0E94 0000 		call DumpHex
 3331               	.LM426:
 3332 0f74 8091 0000 		lds r24,gFlashIndex
 3333 0f78 9091 0000 		lds r25,(gFlashIndex)+1
 3334 0f7c A091 0000 		lds r26,(gFlashIndex)+2
 3335 0f80 B091 0000 		lds r27,(gFlashIndex)+3
 3336 0f84 8050      		subi r24,lo8(-(256))
 3337 0f86 9F4F      		sbci r25,hi8(-(256))
 3338 0f88 AF4F      		sbci r26,hlo8(-(256))
 3339 0f8a BF4F      		sbci r27,hhi8(-(256))
 3340 0f8c 8093 0000 		sts gFlashIndex,r24
 3341 0f90 9093 0000 		sts (gFlashIndex)+1,r25
 3342 0f94 A093 0000 		sts (gFlashIndex)+2,r26
 3343 0f98 B093 0000 		sts (gFlashIndex)+3,r27
 3344 0f9c 00C0      		rjmp .L512
 3345               	.LVL216:
 3346               	.L138:
 3347               	.LM427:
 3348 0f9e 80E0      		ldi r24,lo8(gTextMsg_HELP_MSG_H)
 3349 0fa0 90E0      		ldi r25,hi8(gTextMsg_HELP_MSG_H)
 3350 0fa2 62E0      		ldi r22,lo8(2)
 3351 0fa4 0E94 0000 		call PrintFromPROGMEMln
 3352               	.LVL217:
 3353               	.LBB1252:
 3354               	.LBB1253:
 3355               	.LM428:
 3356 0fa8 80E0      		ldi r24,lo8(gTextMsg_HELP_MSG_0)
 3357 0faa 90E0      		ldi r25,hi8(gTextMsg_HELP_MSG_0)
 3358 0fac 60E0      		ldi r22,lo8(0)
 3359 0fae 0E94 0000 		call PrintFromPROGMEMln
 3360               	.LM429:
 3361 0fb2 80E0      		ldi r24,lo8(gTextMsg_HELP_MSG_QM)
 3362 0fb4 90E0      		ldi r25,hi8(gTextMsg_HELP_MSG_QM)
 3363 0fb6 60E0      		ldi r22,lo8(0)
 3364 0fb8 0E94 0000 		call PrintFromPROGMEMln
 3365               	.LM430:
 3366 0fbc 80E0      		ldi r24,lo8(gTextMsg_HELP_MSG_AT)
 3367 0fbe 90E0      		ldi r25,hi8(gTextMsg_HELP_MSG_AT)
 3368 0fc0 60E0      		ldi r22,lo8(0)
 3369 0fc2 0E94 0000 		call PrintFromPROGMEMln
 3370               	.LM431:
 3371 0fc6 80E0      		ldi r24,lo8(gTextMsg_HELP_MSG_B)
 3372 0fc8 90E0      		ldi r25,hi8(gTextMsg_HELP_MSG_B)
 3373 0fca 60E0      		ldi r22,lo8(0)
 3374 0fcc 0E94 0000 		call PrintFromPROGMEMln
 3375               	.LM432:
 3376 0fd0 80E0      		ldi r24,lo8(gTextMsg_HELP_MSG_E)
 3377 0fd2 90E0      		ldi r25,hi8(gTextMsg_HELP_MSG_E)
 3378 0fd4 60E0      		ldi r22,lo8(0)
 3379 0fd6 0E94 0000 		call PrintFromPROGMEMln
 3380               	.LM433:
 3381 0fda 80E0      		ldi r24,lo8(gTextMsg_HELP_MSG_F)
 3382 0fdc 90E0      		ldi r25,hi8(gTextMsg_HELP_MSG_F)
 3383 0fde 60E0      		ldi r22,lo8(0)
 3384 0fe0 0E94 0000 		call PrintFromPROGMEMln
 3385               	.LM434:
 3386 0fe4 80E0      		ldi r24,lo8(gTextMsg_HELP_MSG_H)
 3387 0fe6 90E0      		ldi r25,hi8(gTextMsg_HELP_MSG_H)
 3388 0fe8 60E0      		ldi r22,lo8(0)
 3389 0fea 0E94 0000 		call PrintFromPROGMEMln
 3390               	.LM435:
 3391 0fee 80E0      		ldi r24,lo8(gTextMsg_HELP_MSG_L)
 3392 0ff0 90E0      		ldi r25,hi8(gTextMsg_HELP_MSG_L)
 3393 0ff2 60E0      		ldi r22,lo8(0)
 3394 0ff4 0E94 0000 		call PrintFromPROGMEMln
 3395               	.LM436:
 3396 0ff8 80E0      		ldi r24,lo8(gTextMsg_HELP_MSG_Q)
 3397 0ffa 90E0      		ldi r25,hi8(gTextMsg_HELP_MSG_Q)
 3398 0ffc 60E0      		ldi r22,lo8(0)
 3399 0ffe 0E94 0000 		call PrintFromPROGMEMln
 3400               	.LM437:
 3401 1002 80E0      		ldi r24,lo8(gTextMsg_HELP_MSG_R)
 3402 1004 90E0      		ldi r25,hi8(gTextMsg_HELP_MSG_R)
 3403 1006 60E0      		ldi r22,lo8(0)
 3404 1008 0E94 0000 		call PrintFromPROGMEMln
 3405               	.LM438:
 3406 100c 80E0      		ldi r24,lo8(gTextMsg_HELP_MSG_V)
 3407 100e 90E0      		ldi r25,hi8(gTextMsg_HELP_MSG_V)
 3408 1010 60E0      		ldi r22,lo8(0)
 3409 1012 0E94 0000 		call PrintFromPROGMEMln
 3410               	.LM439:
 3411 1016 80E0      		ldi r24,lo8(gTextMsg_HELP_MSG_Y)
 3412 1018 90E0      		ldi r25,hi8(gTextMsg_HELP_MSG_Y)
 3413 101a 00C0      		rjmp .L518
 3414               	.LVL218:
 3415               	.L139:
 3416               	.LBE1253:
 3417               	.LBE1252:
 3418               	.LM440:
 3419 101c 80E0      		ldi r24,lo8(gTextMsg_HELP_MSG_L)
 3420 101e 90E0      		ldi r25,hi8(gTextMsg_HELP_MSG_L)
 3421 1020 62E0      		ldi r22,lo8(2)
 3422 1022 0E94 0000 		call PrintFromPROGMEMln
 3423               	.LVL219:
 3424               	.LBB1254:
 3425               	.LBB1255:
 3426               	.LM441:
 3427 1026 81E4      		ldi r24,lo8(65)
 3428 1028 0E94 0000 		call PrintAvailablePort
 3429               	.LM442:
 3430 102c 82E4      		ldi r24,lo8(66)
 3431 102e 0E94 0000 		call PrintAvailablePort
 3432               	.LM443:
 3433 1032 83E4      		ldi r24,lo8(67)
 3434 1034 0E94 0000 		call PrintAvailablePort
 3435               	.LM444:
 3436 1038 84E4      		ldi r24,lo8(68)
 3437 103a 0E94 0000 		call PrintAvailablePort
 3438               	.LM445:
 3439 103e 85E4      		ldi r24,lo8(69)
 3440 1040 0E94 0000 		call PrintAvailablePort
 3441               	.LM446:
 3442 1044 86E4      		ldi r24,lo8(70)
 3443 1046 0E94 0000 		call PrintAvailablePort
 3444               	.LM447:
 3445 104a 87E4      		ldi r24,lo8(71)
 3446 104c 0E94 0000 		call PrintAvailablePort
 3447               	.LM448:
 3448 1050 88E4      		ldi r24,lo8(72)
 3449 1052 0E94 0000 		call PrintAvailablePort
 3450               	.LM449:
 3451 1056 8AE4      		ldi r24,lo8(74)
 3452 1058 0E94 0000 		call PrintAvailablePort
 3453               	.LM450:
 3454 105c 8BE4      		ldi r24,lo8(75)
 3455 105e 0E94 0000 		call PrintAvailablePort
 3456               	.LM451:
 3457 1062 8CE4      		ldi r24,lo8(76)
 3458 1064 0E94 0000 		call PrintAvailablePort
 3459 1068 00C0      		rjmp .L512
 3460               	.LVL220:
 3461               	.L528:
 3462               	.LBE1255:
 3463               	.LBE1254:
 3464               	.LM452:
 3465 106a 80E0      		ldi r24,lo8(gTextMsg_HELP_MSG_Q)
 3466 106c 90E0      		ldi r25,hi8(gTextMsg_HELP_MSG_Q)
 3467 106e 62E0      		ldi r22,lo8(2)
 3468 1070 0E94 0000 		call PrintFromPROGMEMln
 3469               	.LVL221:
 3470 1074 9924      		clr r9
 3471 1076 9394      		inc r9
 3472 1078 AA24      		clr r10
 3473 107a BB24      		clr r11
 3474               	.LVL222:
 3475 107c 00C0      		rjmp .L231
 3476               	.LVL223:
 3477               	.L141:
 3478               	.LM453:
 3479 107e 80E0      		ldi r24,lo8(gTextMsg_HELP_MSG_R)
 3480 1080 90E0      		ldi r25,hi8(gTextMsg_HELP_MSG_R)
 3481 1082 62E0      		ldi r22,lo8(2)
 3482 1084 0E94 0000 		call PrintFromPROGMEMln
 3483               	.LVL224:
 3484               	.LM454:
 3485 1088 4091 0000 		lds r20,gRamIndex
 3486 108c 5091 0000 		lds r21,(gRamIndex)+1
 3487 1090 6091 0000 		lds r22,(gRamIndex)+2
 3488 1094 7091 0000 		lds r23,(gRamIndex)+3
 3489 1098 82E0      		ldi r24,lo8(2)
 3490 109a 20E1      		ldi r18,lo8(16)
 3491 109c 0E94 0000 		call DumpHex
 3492               	.LM455:
 3493 10a0 8091 0000 		lds r24,gRamIndex
 3494 10a4 9091 0000 		lds r25,(gRamIndex)+1
 3495 10a8 A091 0000 		lds r26,(gRamIndex)+2
 3496 10ac B091 0000 		lds r27,(gRamIndex)+3
 3497 10b0 8050      		subi r24,lo8(-(256))
 3498 10b2 9F4F      		sbci r25,hi8(-(256))
 3499 10b4 AF4F      		sbci r26,hlo8(-(256))
 3500 10b6 BF4F      		sbci r27,hhi8(-(256))
 3501 10b8 8093 0000 		sts gRamIndex,r24
 3502 10bc 9093 0000 		sts (gRamIndex)+1,r25
 3503 10c0 A093 0000 		sts (gRamIndex)+2,r26
 3504 10c4 B093 0000 		sts (gRamIndex)+3,r27
 3505 10c8 00C0      		rjmp .L512
 3506               	.LVL225:
 3507               	.L142:
 3508               	.LM456:
 3509 10ca 80E0      		ldi r24,lo8(gTextMsg_HELP_MSG_V)
 3510 10cc 90E0      		ldi r25,hi8(gTextMsg_HELP_MSG_V)
 3511 10ce 62E0      		ldi r22,lo8(2)
 3512 10d0 0E94 0000 		call PrintFromPROGMEMln
 3513               	.LVL226:
 3514               	.LBB1256:
 3515               	.LBB1257:
 3516               	.LM457:
 3517 10d4 80E0      		ldi r24,lo8(gTextMsg_CPU_Name)
 3518 10d6 90E0      		ldi r25,hi8(gTextMsg_CPU_Name)
 3519 10d8 60E0      		ldi r22,lo8(0)
 3520 10da 0E94 0000 		call PrintFromPROGMEMln
 3521               	.LM458:
 3522 10de 80E0      		ldi r24,lo8(gTextMsg_VECTOR_HEADER)
 3523 10e0 90E0      		ldi r25,hi8(gTextMsg_VECTOR_HEADER)
 3524 10e2 60E0      		ldi r22,lo8(0)
 3525 10e4 0E94 0000 		call PrintFromPROGMEMln
 3526 10e8 6624      		clr r6
 3527 10ea 7724      		clr r7
 3528 10ec 4301      		movw r8,r6
 3529 10ee CC5D      		subi r28,lo8(-292)
 3530 10f0 DE4F      		sbci r29,hi8(-292)
 3531 10f2 1982      		std Y+1,__zero_reg__
 3532 10f4 1882      		st Y,__zero_reg__
 3533 10f6 C452      		subi r28,lo8(292)
 3534 10f8 D140      		sbci r29,hi8(292)
 3535               	.LVL227:
 3536               	.LVL228:
 3537               	.L259:
 3538               	.LM459:
 3539 10fa 8401      		movw r16,r8
 3540 10fc 7301      		movw r14,r6
 3541               	.LVL229:
 3542 10fe 1695      		lsr r17
 3543 1100 0795      		ror r16
 3544 1102 F794      		ror r15
 3545 1104 E794      		ror r14
 3546               	.LVL230:
 3547 1106 CA5D      		subi r28,lo8(-294)
 3548 1108 DE4F      		sbci r29,hi8(-294)
 3549 110a E882      		st Y,r14
 3550 110c F982      		std Y+1,r15
 3551 110e 0A83      		std Y+2,r16
 3552 1110 1B83      		std Y+3,r17
 3553 1112 C652      		subi r28,lo8(294)
 3554 1114 D140      		sbci r29,hi8(294)
 3555               	.LVL231:
 3556               	.LM460:
 3557 1116 CC5D      		subi r28,lo8(-292)
 3558 1118 DE4F      		sbci r29,hi8(-292)
 3559 111a 0881      		ld r16,Y
 3560 111c 1981      		ldd r17,Y+1
 3561 111e C452      		subi r28,lo8(292)
 3562 1120 D140      		sbci r29,hi8(292)
 3563               	.LVL232:
 3564 1122 0F5F      		subi r16,lo8(-(1))
 3565 1124 1F4F      		sbci r17,hi8(-(1))
 3566 1126 CC5D      		subi r28,lo8(-292)
 3567 1128 DE4F      		sbci r29,hi8(-292)
 3568 112a 1983      		std Y+1,r17
 3569 112c 0883      		st Y,r16
 3570 112e C452      		subi r28,lo8(292)
 3571 1130 D140      		sbci r29,hi8(292)
 3572               	.LVL233:
 3573 1132 C801      		movw r24,r16
 3574 1134 62E0      		ldi r22,lo8(2)
 3575 1136 70E0      		ldi r23,hi8(2)
 3576 1138 0E94 0000 		call PrintDecInt
 3577               	.LBB1258:
 3578               	.LBB1259:
 3579               	.LM461:
 3580 113c 10E2      		ldi r17,lo8(32)
 3581               	.LVL234:
 3582 113e 1093 C600 		sts 198,r17
 3583               	.L232:
 3584               	.LM462:
 3585 1142 8091 C000 		lds r24,192
 3586 1146 86FF      		sbrs r24,6
 3587 1148 00C0      		rjmp .L232
 3588               	.LM463:
 3589 114a 8091 C000 		lds r24,192
 3590 114e 8064      		ori r24,lo8(64)
 3591 1150 8093 C000 		sts 192,r24
 3592               	.LBE1259:
 3593               	.LBE1258:
 3594               	.LBB1260:
 3595               	.LBB1261:
 3596               	.LM464:
 3597 1154 2DE2      		ldi r18,lo8(45)
 3598 1156 2093 C600 		sts 198,r18
 3599               	.L233:
 3600               	.LM465:
 3601 115a 8091 C000 		lds r24,192
 3602 115e 86FF      		sbrs r24,6
 3603 1160 00C0      		rjmp .L233
 3604               	.LM466:
 3605 1162 8091 C000 		lds r24,192
 3606 1166 8064      		ori r24,lo8(64)
 3607 1168 8093 C000 		sts 192,r24
 3608               	.LBE1261:
 3609               	.LBE1260:
 3610               	.LBB1262:
 3611               	.LBB1263:
 3612               	.LM467:
 3613 116c 30E2      		ldi r19,lo8(32)
 3614 116e 3093 C600 		sts 198,r19
 3615               	.L234:
 3616               	.LM468:
 3617 1172 8091 C000 		lds r24,192
 3618 1176 86FF      		sbrs r24,6
 3619 1178 00C0      		rjmp .L234
 3620               	.LM469:
 3621 117a 8091 C000 		lds r24,192
 3622 117e 8064      		ori r24,lo8(64)
 3623 1180 8093 C000 		sts 192,r24
 3624               	.LBE1263:
 3625               	.LBE1262:
 3626               	.LM470:
 3627 1184 CA5D      		subi r28,lo8(-294)
 3628 1186 DE4F      		sbci r29,hi8(-294)
 3629 1188 E880      		ld r14,Y
 3630 118a F980      		ldd r15,Y+1
 3631 118c 0A81      		ldd r16,Y+2
 3632 118e 1B81      		ldd r17,Y+3
 3633 1190 C652      		subi r28,lo8(294)
 3634 1192 D140      		sbci r29,hi8(294)
 3635 1194 BB27      		clr r27
 3636 1196 A12F      		mov r26,r17
 3637 1198 902F      		mov r25,r16
 3638 119a 8F2D      		mov r24,r15
 3639 119c 0E94 0000 		call PrintHexByte
 3640               	.LM471:
 3641 11a0 CA5D      		subi r28,lo8(-294)
 3642 11a2 DE4F      		sbci r29,hi8(-294)
 3643 11a4 8881      		ld r24,Y
 3644 11a6 C652      		subi r28,lo8(294)
 3645 11a8 D140      		sbci r29,hi8(294)
 3646 11aa 0E94 0000 		call PrintHexByte
 3647               	.LBB1264:
 3648               	.LBB1265:
 3649               	.LM472:
 3650 11ae E0E2      		ldi r30,lo8(32)
 3651 11b0 FE2E      		mov r15,r30
 3652 11b2 F092 C600 		sts 198,r15
 3653               	.LVL235:
 3654               	.L235:
 3655               	.LM473:
 3656 11b6 8091 C000 		lds r24,192
 3657 11ba 86FF      		sbrs r24,6
 3658 11bc 00C0      		rjmp .L235
 3659               	.LM474:
 3660 11be 8091 C000 		lds r24,192
 3661 11c2 8064      		ori r24,lo8(64)
 3662 11c4 8093 C000 		sts 192,r24
 3663               	.LBE1265:
 3664               	.LBE1264:
 3665               	.LBB1266:
 3666               	.LBB1267:
 3667               	.LM475:
 3668 11c8 0DE3      		ldi r16,lo8(61)
 3669 11ca 0093 C600 		sts 198,r16
 3670               	.L236:
 3671               	.LM476:
 3672 11ce 8091 C000 		lds r24,192
 3673 11d2 86FF      		sbrs r24,6
 3674 11d4 00C0      		rjmp .L236
 3675               	.LM477:
 3676 11d6 8091 C000 		lds r24,192
 3677 11da 8064      		ori r24,lo8(64)
 3678 11dc 8093 C000 		sts 192,r24
 3679               	.LBE1267:
 3680               	.LBE1266:
 3681               	.LBB1268:
 3682               	.LBB1269:
 3683               	.LM478:
 3684 11e0 10E2      		ldi r17,lo8(32)
 3685 11e2 1093 C600 		sts 198,r17
 3686               	.L237:
 3687               	.LM479:
 3688 11e6 8091 C000 		lds r24,192
 3689 11ea 86FF      		sbrs r24,6
 3690 11ec 00C0      		rjmp .L237
 3691               	.LM480:
 3692 11ee 8091 C000 		lds r24,192
 3693 11f2 8064      		ori r24,lo8(64)
 3694 11f4 8093 C000 		sts 192,r24
 3695               	.LBE1269:
 3696               	.LBE1268:
 3697               	.LBB1270:
 3698               	.LM481:
 3699               	/* #APP */
 3700               	 ;  1667 "stk500boot.c" 1
 3701 11f8 8BBE      		out 59, r8
 3702 11fa F301      		movw r30, r6
 3703 11fc 2791      		elpm r18, Z+
 3704               		
 3705               	 ;  0 "" 2
 3706               	/* #NOAPP */
 3707 11fe C65D      		subi r28,lo8(-298)
 3708 1200 DE4F      		sbci r29,hi8(-298)
 3709 1202 2883      		st Y,r18
 3710 1204 CA52      		subi r28,lo8(298)
 3711 1206 D140      		sbci r29,hi8(298)
 3712               	.LVL236:
 3713               	.LBE1270:
 3714 1208 A22E      		mov r10,r18
 3715               	.LVL237:
 3716 120a BB24      		clr r11
 3717 120c CC24      		clr r12
 3718 120e DD24      		clr r13
 3719               	.LVL238:
 3720               	.LBB1271:
 3721               	.LM482:
 3722 1210 0894      		sec
 3723 1212 611C      		adc r6,__zero_reg__
 3724 1214 711C      		adc r7,__zero_reg__
 3725 1216 811C      		adc r8,__zero_reg__
 3726 1218 911C      		adc r9,__zero_reg__
 3727               	/* #APP */
 3728               	 ;  1668 "stk500boot.c" 1
 3729 121a 8BBE      		out 59, r8
 3730 121c F301      		movw r30, r6
 3731 121e 8791      		elpm r24, Z+
 3732               		
 3733               	 ;  0 "" 2
 3734               	.LVL239:
 3735               	/* #NOAPP */
 3736               	.LBE1271:
 3737 1220 282E      		mov r2,r24
 3738 1222 3324      		clr r3
 3739 1224 4424      		clr r4
 3740 1226 5524      		clr r5
 3741               	.LBB1272:
 3742               	.LM483:
 3743 1228 0894      		sec
 3744 122a 611C      		adc r6,__zero_reg__
 3745 122c 711C      		adc r7,__zero_reg__
 3746 122e 811C      		adc r8,__zero_reg__
 3747 1230 911C      		adc r9,__zero_reg__
 3748               	/* #APP */
 3749               	 ;  1669 "stk500boot.c" 1
 3750 1232 8BBE      		out 59, r8
 3751 1234 F301      		movw r30, r6
 3752 1236 3791      		elpm r19, Z+
 3753               		
 3754               	 ;  0 "" 2
 3755               	/* #NOAPP */
 3756 1238 C55D      		subi r28,lo8(-299)
 3757 123a DE4F      		sbci r29,hi8(-299)
 3758 123c 3883      		st Y,r19
 3759 123e CB52      		subi r28,lo8(299)
 3760 1240 D140      		sbci r29,hi8(299)
 3761               	.LVL240:
 3762               	.LBE1272:
 3763               	.LBB1273:
 3764               	.LM484:
 3765 1242 0894      		sec
 3766 1244 611C      		adc r6,__zero_reg__
 3767 1246 711C      		adc r7,__zero_reg__
 3768 1248 811C      		adc r8,__zero_reg__
 3769 124a 911C      		adc r9,__zero_reg__
 3770               	/* #APP */
 3771               	 ;  1670 "stk500boot.c" 1
 3772 124c 8BBE      		out 59, r8
 3773 124e F301      		movw r30, r6
 3774 1250 4791      		elpm r20, Z+
 3775               		
 3776               	 ;  0 "" 2
 3777               	/* #NOAPP */
 3778 1252 C45D      		subi r28,lo8(-300)
 3779 1254 DE4F      		sbci r29,hi8(-300)
 3780 1256 4883      		st Y,r20
 3781 1258 CC52      		subi r28,lo8(300)
 3782 125a D140      		sbci r29,hi8(300)
 3783               	.LVL241:
 3784 125c 7DEF      		ldi r23,lo8(-3)
 3785 125e E72E      		mov r14,r23
 3786 1260 7FEF      		ldi r23,hi8(-3)
 3787 1262 F72E      		mov r15,r23
 3788 1264 7FEF      		ldi r23,hlo8(-3)
 3789 1266 072F      		mov r16,r23
 3790 1268 7FEF      		ldi r23,hhi8(-3)
 3791 126a 172F      		mov r17,r23
 3792 126c 6E0C      		add r6,r14
 3793 126e 7F1C      		adc r7,r15
 3794 1270 801E      		adc r8,r16
 3795 1272 911E      		adc r9,r17
 3796               	.LBE1273:
 3797               	.LM485:
 3798 1274 142D      		mov r17,r4
 3799 1276 032D      		mov r16,r3
 3800 1278 F22C      		mov r15,r2
 3801 127a EE24      		clr r14
 3802               	.LVL242:
 3803 127c EA0C      		add r14,r10
 3804 127e FB1C      		adc r15,r11
 3805 1280 0C1D      		adc r16,r12
 3806 1282 1D1D      		adc r17,r13
 3807               	.LM486:
 3808 1284 0E94 0000 		call PrintHexByte
 3809               	.LVL243:
 3810               	.LBB1274:
 3811               	.LBB1275:
 3812               	.LM487:
 3813 1288 20E2      		ldi r18,lo8(32)
 3814 128a 2093 C600 		sts 198,r18
 3815               	.L238:
 3816               	.LM488:
 3817 128e 8091 C000 		lds r24,192
 3818 1292 86FF      		sbrs r24,6
 3819 1294 00C0      		rjmp .L238
 3820               	.LM489:
 3821 1296 8091 C000 		lds r24,192
 3822 129a 8064      		ori r24,lo8(64)
 3823 129c 8093 C000 		sts 192,r24
 3824               	.LBE1275:
 3825               	.LBE1274:
 3826               	.LM490:
 3827 12a0 C65D      		subi r28,lo8(-298)
 3828 12a2 DE4F      		sbci r29,hi8(-298)
 3829 12a4 8881      		ld r24,Y
 3830 12a6 CA52      		subi r28,lo8(298)
 3831 12a8 D140      		sbci r29,hi8(298)
 3832 12aa 0E94 0000 		call PrintHexByte
 3833               	.LBB1276:
 3834               	.LBB1277:
 3835               	.LM491:
 3836 12ae 30E2      		ldi r19,lo8(32)
 3837 12b0 3093 C600 		sts 198,r19
 3838               	.L239:
 3839               	.LM492:
 3840 12b4 8091 C000 		lds r24,192
 3841 12b8 86FF      		sbrs r24,6
 3842 12ba 00C0      		rjmp .L239
 3843               	.LM493:
 3844 12bc 8091 C000 		lds r24,192
 3845 12c0 8064      		ori r24,lo8(64)
 3846 12c2 8093 C000 		sts 192,r24
 3847               	.LBE1277:
 3848               	.LBE1276:
 3849               	.LM494:
 3850 12c6 C45D      		subi r28,lo8(-300)
 3851 12c8 DE4F      		sbci r29,hi8(-300)
 3852 12ca 8881      		ld r24,Y
 3853 12cc CC52      		subi r28,lo8(300)
 3854 12ce D140      		sbci r29,hi8(300)
 3855 12d0 0E94 0000 		call PrintHexByte
 3856               	.LBB1278:
 3857               	.LBB1279:
 3858               	.LM495:
 3859 12d4 40E2      		ldi r20,lo8(32)
 3860 12d6 4093 C600 		sts 198,r20
 3861               	.L240:
 3862               	.LM496:
 3863 12da 8091 C000 		lds r24,192
 3864 12de 86FF      		sbrs r24,6
 3865 12e0 00C0      		rjmp .L240
 3866               	.LM497:
 3867 12e2 8091 C000 		lds r24,192
 3868 12e6 8064      		ori r24,lo8(64)
 3869 12e8 8093 C000 		sts 192,r24
 3870               	.LBE1279:
 3871               	.LBE1278:
 3872               	.LM498:
 3873 12ec C55D      		subi r28,lo8(-299)
 3874 12ee DE4F      		sbci r29,hi8(-299)
 3875 12f0 8881      		ld r24,Y
 3876 12f2 CB52      		subi r28,lo8(299)
 3877 12f4 D140      		sbci r29,hi8(299)
 3878 12f6 0E94 0000 		call PrintHexByte
 3879               	.LBB1280:
 3880               	.LBB1281:
 3881               	.LM499:
 3882 12fa 50E2      		ldi r21,lo8(32)
 3883 12fc 5093 C600 		sts 198,r21
 3884               	.L241:
 3885               	.LM500:
 3886 1300 8091 C000 		lds r24,192
 3887 1304 86FF      		sbrs r24,6
 3888 1306 00C0      		rjmp .L241
 3889               	.LM501:
 3890 1308 8091 C000 		lds r24,192
 3891 130c 8064      		ori r24,lo8(64)
 3892 130e 8093 C000 		sts 192,r24
 3893               	.LBE1281:
 3894               	.LBE1280:
 3895               	.LM502:
 3896 1312 8FEF      		ldi r24,lo8(65535)
 3897 1314 E816      		cp r14,r24
 3898 1316 8FEF      		ldi r24,hi8(65535)
 3899 1318 F806      		cpc r15,r24
 3900 131a 80E0      		ldi r24,hlo8(65535)
 3901 131c 0807      		cpc r16,r24
 3902 131e 80E0      		ldi r24,hhi8(65535)
 3903 1320 1807      		cpc r17,r24
 3904 1322 01F4      		brne .L242
 3905 1324 20E0      		ldi r18,lo8(gTextMsg_noVector)
 3906 1326 30E0      		ldi r19,hi8(gTextMsg_noVector)
 3907               	.LVL244:
 3908               	.L245:
 3909               	.LBB1282:
 3910               	.LBB1283:
 3911               	.LBB1284:
 3912               	.LM503:
 3913 1328 C901      		movw r24,r18
 3914               	.LVL245:
 3915 132a A0E0      		ldi r26,lo8(0)
 3916 132c B0E0      		ldi r27,hi8(0)
 3917 132e 2F5F      		subi r18,lo8(-(1))
 3918 1330 3F4F      		sbci r19,hi8(-(1))
 3919               	/* #APP */
 3920               	 ;  1298 "stk500boot.c" 1
 3921 1332 ABBF      		out 59, r26
 3922 1334 FC01      		movw r30, r24
 3923 1336 8791      		elpm r24, Z+
 3924               		
 3925               	 ;  0 "" 2
 3926               	.LVL246:
 3927               	/* #NOAPP */
 3928               	.LBE1284:
 3929               	.LM504:
 3930 1338 8823      		tst r24
 3931 133a 01F4      		brne .+2
 3932 133c 00C0      		rjmp .L243
 3933               	.LBB1285:
 3934               	.LBB1286:
 3935               	.LM505:
 3936 133e 8093 C600 		sts 198,r24
 3937               	.L244:
 3938               	.LM506:
 3939 1342 8091 C000 		lds r24,192
 3940               	.LVL247:
 3941 1346 86FF      		sbrs r24,6
 3942 1348 00C0      		rjmp .L244
 3943               	.LM507:
 3944 134a 8091 C000 		lds r24,192
 3945 134e 8064      		ori r24,lo8(64)
 3946 1350 8093 C000 		sts 192,r24
 3947 1354 00C0      		rjmp .L245
 3948               	.LVL248:
 3949               	.L242:
 3950               	.LBE1286:
 3951               	.LBE1285:
 3952               	.LBE1283:
 3953               	.LBE1282:
 3954               	.LM508:
 3955 1356 D801      		movw r26,r16
 3956 1358 C701      		movw r24,r14
 3957 135a 8070      		andi r24,lo8(49152)
 3958 135c 907C      		andi r25,hi8(49152)
 3959 135e A070      		andi r26,hlo8(49152)
 3960 1360 B070      		andi r27,hhi8(49152)
 3961 1362 8050      		subi r24,lo8(49152)
 3962 1364 904C      		sbci r25,hi8(49152)
 3963 1366 A040      		sbci r26,hlo8(49152)
 3964 1368 B040      		sbci r27,hhi8(49152)
 3965 136a 01F0      		breq .+2
 3966 136c 00C0      		rjmp .L246
 3967               	.LM509:
 3968 136e 2FEF      		ldi r18,lo8(16383)
 3969 1370 3FE3      		ldi r19,hi8(16383)
 3970 1372 40E0      		ldi r20,hlo8(16383)
 3971 1374 50E0      		ldi r21,hhi8(16383)
 3972 1376 E222      		and r14,r18
 3973 1378 F322      		and r15,r19
 3974 137a 0423      		and r16,r20
 3975 137c 1523      		and r17,r21
 3976               	.LVL249:
 3977               	.LM510:
 3978 137e CA5D      		subi r28,lo8(-294)
 3979 1380 DE4F      		sbci r29,hi8(-294)
 3980 1382 A880      		ld r10,Y
 3981 1384 B980      		ldd r11,Y+1
 3982 1386 CA80      		ldd r12,Y+2
 3983 1388 DB80      		ldd r13,Y+3
 3984 138a C652      		subi r28,lo8(294)
 3985 138c D140      		sbci r29,hi8(294)
 3986               	.LVL250:
 3987 138e AE0C      		add r10,r14
 3988 1390 BF1C      		adc r11,r15
 3989 1392 C01E      		adc r12,r16
 3990 1394 D11E      		adc r13,r17
 3991               	.LM511:
 3992 1396 AA0C      		lsl r10
 3993 1398 BB1C      		rol r11
 3994 139a CC1C      		rol r12
 3995 139c DD1C      		rol r13
 3996 139e 20E0      		ldi r18,lo8(gTextMsg_rjmp)
 3997 13a0 30E0      		ldi r19,hi8(gTextMsg_rjmp)
 3998               	.LVL251:
 3999               	.L249:
 4000               	.LBB1287:
 4001               	.LBB1288:
 4002               	.LBB1289:
 4003               	.LM512:
 4004 13a2 C901      		movw r24,r18
 4005               	.LVL252:
 4006 13a4 A0E0      		ldi r26,lo8(0)
 4007 13a6 B0E0      		ldi r27,hi8(0)
 4008 13a8 2F5F      		subi r18,lo8(-(1))
 4009 13aa 3F4F      		sbci r19,hi8(-(1))
 4010               	/* #APP */
 4011               	 ;  1298 "stk500boot.c" 1
 4012 13ac ABBF      		out 59, r26
 4013 13ae FC01      		movw r30, r24
 4014 13b0 8791      		elpm r24, Z+
 4015               		
 4016               	 ;  0 "" 2
 4017               	.LVL253:
 4018               	/* #NOAPP */
 4019               	.LBE1289:
 4020               	.LM513:
 4021 13b2 8823      		tst r24
 4022 13b4 01F0      		breq .L247
 4023               	.LBB1290:
 4024               	.LBB1291:
 4025               	.LM514:
 4026 13b6 8093 C600 		sts 198,r24
 4027               	.L248:
 4028               	.LM515:
 4029 13ba 8091 C000 		lds r24,192
 4030               	.LVL254:
 4031 13be 86FF      		sbrs r24,6
 4032 13c0 00C0      		rjmp .L248
 4033               	.LM516:
 4034 13c2 8091 C000 		lds r24,192
 4035 13c6 8064      		ori r24,lo8(64)
 4036 13c8 8093 C000 		sts 192,r24
 4037 13cc 00C0      		rjmp .L249
 4038               	.LVL255:
 4039               	.L247:
 4040               	.LBE1291:
 4041               	.LBE1290:
 4042               	.LBE1288:
 4043               	.LBE1287:
 4044               	.LM517:
 4045 13ce BB27      		clr r27
 4046 13d0 A12F      		mov r26,r17
 4047 13d2 902F      		mov r25,r16
 4048 13d4 8F2D      		mov r24,r15
 4049               	.LVL256:
 4050 13d6 0E94 0000 		call PrintHexByte
 4051               	.LVL257:
 4052               	.LM518:
 4053 13da 8E2D      		mov r24,r14
 4054 13dc 0E94 0000 		call PrintHexByte
 4055               	.LBB1292:
 4056               	.LBB1293:
 4057               	.LM519:
 4058 13e0 30E2      		ldi r19,lo8(32)
 4059 13e2 3093 C600 		sts 198,r19
 4060               	.L250:
 4061               	.LM520:
 4062 13e6 8091 C000 		lds r24,192
 4063 13ea 86FF      		sbrs r24,6
 4064 13ec 00C0      		rjmp .L250
 4065               	.LM521:
 4066 13ee 8091 C000 		lds r24,192
 4067 13f2 8064      		ori r24,lo8(64)
 4068 13f4 8093 C000 		sts 192,r24
 4069               	.LBE1293:
 4070               	.LBE1292:
 4071               	.LBB1294:
 4072               	.LBB1295:
 4073               	.LM522:
 4074 13f8 4EE3      		ldi r20,lo8(62)
 4075 13fa 4093 C600 		sts 198,r20
 4076               	.L251:
 4077               	.LM523:
 4078 13fe 8091 C000 		lds r24,192
 4079 1402 86FF      		sbrs r24,6
 4080 1404 00C0      		rjmp .L251
 4081 1406 00C0      		rjmp .L521
 4082               	.LVL258:
 4083               	.L246:
 4084               	.LBE1295:
 4085               	.LBE1294:
 4086               	.LM524:
 4087 1408 8EE0      		ldi r24,lo8(65038)
 4088 140a 9EEF      		ldi r25,hi8(65038)
 4089 140c A0E0      		ldi r26,hlo8(65038)
 4090 140e B0E0      		ldi r27,hhi8(65038)
 4091 1410 E822      		and r14,r24
 4092 1412 F922      		and r15,r25
 4093 1414 0A23      		and r16,r26
 4094 1416 1B23      		and r17,r27
 4095 1418 9CE0      		ldi r25,lo8(37900)
 4096 141a E916      		cp r14,r25
 4097 141c 94E9      		ldi r25,hi8(37900)
 4098 141e F906      		cpc r15,r25
 4099 1420 90E0      		ldi r25,hlo8(37900)
 4100 1422 0907      		cpc r16,r25
 4101 1424 90E0      		ldi r25,hhi8(37900)
 4102 1426 1907      		cpc r17,r25
 4103 1428 01F0      		breq .+2
 4104 142a 00C0      		rjmp .L243
 4105               	.LM525:
 4106 142c C45D      		subi r28,lo8(-300)
 4107 142e DE4F      		sbci r29,hi8(-300)
 4108 1430 E881      		ld r30,Y
 4109 1432 CC52      		subi r28,lo8(300)
 4110 1434 D140      		sbci r29,hi8(300)
 4111 1436 8E2F      		mov r24,r30
 4112               	.LVL259:
 4113 1438 90E0      		ldi r25,lo8(0)
 4114               	.LVL260:
 4115 143a A0E0      		ldi r26,lo8(0)
 4116 143c B0E0      		ldi r27,hi8(0)
 4117               	.LVL261:
 4118 143e EE24      		clr r14
 4119 1440 F82E      		mov r15,r24
 4120 1442 092F      		mov r16,r25
 4121 1444 1A2F      		mov r17,r26
 4122               	.LVL262:
 4123 1446 C55D      		subi r28,lo8(-299)
 4124 1448 DE4F      		sbci r29,hi8(-299)
 4125 144a F881      		ld r31,Y
 4126 144c CB52      		subi r28,lo8(299)
 4127 144e D140      		sbci r29,hi8(299)
 4128 1450 EF0E      		add r14,r31
 4129 1452 F11C      		adc r15,__zero_reg__
 4130 1454 011D      		adc r16,__zero_reg__
 4131 1456 111D      		adc r17,__zero_reg__
 4132 1458 D601      		movw r26,r12
 4133 145a C501      		movw r24,r10
 4134               	.LVL263:
 4135 145c 8170      		andi r24,lo8(1)
 4136 145e 9070      		andi r25,hi8(1)
 4137 1460 A070      		andi r26,hlo8(1)
 4138 1462 B070      		andi r27,hhi8(1)
 4139 1464 DC01      		movw r26,r24
 4140 1466 9927      		clr r25
 4141 1468 8827      		clr r24
 4142 146a E80E      		add r14,r24
 4143 146c F91E      		adc r15,r25
 4144 146e 0A1F      		adc r16,r26
 4145 1470 1B1F      		adc r17,r27
 4146 1472 20EF      		ldi r18,lo8(240)
 4147 1474 30E0      		ldi r19,hi8(240)
 4148 1476 40E0      		ldi r20,hlo8(240)
 4149 1478 50E0      		ldi r21,hhi8(240)
 4150 147a A222      		and r10,r18
 4151 147c B322      		and r11,r19
 4152 147e C422      		and r12,r20
 4153 1480 D522      		and r13,r21
 4154               	.LVL264:
 4155 1482 91E1      		ldi r25,17
 4156 1484 AA0C      	1:	lsl r10
 4157 1486 BB1C      		rol r11
 4158 1488 CC1C      		rol r12
 4159 148a DD1C      		rol r13
 4160 148c 9A95      		dec r25
 4161 148e 01F4      		brne 1b
 4162               	.LVL265:
 4163 1490 EA0C      		add r14,r10
 4164 1492 FB1C      		adc r15,r11
 4165 1494 0C1D      		adc r16,r12
 4166 1496 1D1D      		adc r17,r13
 4167 1498 81E0      		ldi r24,lo8(1)
 4168 149a 90E0      		ldi r25,hi8(1)
 4169 149c A0E0      		ldi r26,hlo8(1)
 4170 149e B0E0      		ldi r27,hhi8(1)
 4171 14a0 2822      		and r2,r24
 4172 14a2 3922      		and r3,r25
 4173 14a4 4A22      		and r4,r26
 4174 14a6 5B22      		and r5,r27
 4175               	.LVL266:
 4176 14a8 85E1      		ldi r24,21
 4177 14aa 220C      	1:	lsl r2
 4178 14ac 331C      		rol r3
 4179 14ae 441C      		rol r4
 4180 14b0 551C      		rol r5
 4181 14b2 8A95      		dec r24
 4182 14b4 01F4      		brne 1b
 4183 14b6 E20C      		add r14,r2
 4184 14b8 F31C      		adc r15,r3
 4185 14ba 041D      		adc r16,r4
 4186 14bc 151D      		adc r17,r5
 4187               	.LM526:
 4188 14be 5701      		movw r10,r14
 4189 14c0 6801      		movw r12,r16
 4190               	.LVL267:
 4191 14c2 AA0C      		lsl r10
 4192 14c4 BB1C      		rol r11
 4193 14c6 CC1C      		rol r12
 4194 14c8 DD1C      		rol r13
 4195 14ca 20E0      		ldi r18,lo8(gTextMsg_jmp)
 4196 14cc 30E0      		ldi r19,hi8(gTextMsg_jmp)
 4197               	.LVL268:
 4198               	.L254:
 4199               	.LBB1296:
 4200               	.LBB1297:
 4201               	.LBB1298:
 4202               	.LM527:
 4203 14ce C901      		movw r24,r18
 4204               	.LVL269:
 4205 14d0 A0E0      		ldi r26,lo8(0)
 4206 14d2 B0E0      		ldi r27,hi8(0)
 4207               	.LVL270:
 4208 14d4 2F5F      		subi r18,lo8(-(1))
 4209 14d6 3F4F      		sbci r19,hi8(-(1))
 4210               	/* #APP */
 4211               	 ;  1298 "stk500boot.c" 1
 4212 14d8 ABBF      		out 59, r26
 4213 14da FC01      		movw r30, r24
 4214 14dc 8791      		elpm r24, Z+
 4215               		
 4216               	 ;  0 "" 2
 4217               	.LVL271:
 4218               	/* #NOAPP */
 4219               	.LBE1298:
 4220               	.LM528:
 4221 14de 8823      		tst r24
 4222 14e0 01F0      		breq .L252
 4223               	.LBB1299:
 4224               	.LBB1300:
 4225               	.LM529:
 4226 14e2 8093 C600 		sts 198,r24
 4227               	.L253:
 4228               	.LM530:
 4229 14e6 8091 C000 		lds r24,192
 4230               	.LVL272:
 4231 14ea 86FF      		sbrs r24,6
 4232 14ec 00C0      		rjmp .L253
 4233               	.LM531:
 4234 14ee 8091 C000 		lds r24,192
 4235 14f2 8064      		ori r24,lo8(64)
 4236 14f4 8093 C000 		sts 192,r24
 4237 14f8 00C0      		rjmp .L254
 4238               	.LVL273:
 4239               	.L252:
 4240               	.LBE1300:
 4241               	.LBE1299:
 4242               	.LBE1297:
 4243               	.LBE1296:
 4244               	.LM532:
 4245 14fa C801      		movw r24,r16
 4246 14fc AA27      		clr r26
 4247 14fe BB27      		clr r27
 4248               	.LVL274:
 4249 1500 0E94 0000 		call PrintHexByte
 4250               	.LVL275:
 4251               	.LM533:
 4252 1504 BB27      		clr r27
 4253 1506 A12F      		mov r26,r17
 4254 1508 902F      		mov r25,r16
 4255 150a 8F2D      		mov r24,r15
 4256 150c 0E94 0000 		call PrintHexByte
 4257               	.LM534:
 4258 1510 8E2D      		mov r24,r14
 4259 1512 0E94 0000 		call PrintHexByte
 4260               	.LBB1301:
 4261               	.LBB1302:
 4262               	.LM535:
 4263 1516 90E2      		ldi r25,lo8(32)
 4264 1518 9093 C600 		sts 198,r25
 4265               	.L255:
 4266               	.LM536:
 4267 151c 8091 C000 		lds r24,192
 4268 1520 86FF      		sbrs r24,6
 4269 1522 00C0      		rjmp .L255
 4270               	.LM537:
 4271 1524 8091 C000 		lds r24,192
 4272 1528 8064      		ori r24,lo8(64)
 4273 152a 8093 C000 		sts 192,r24
 4274               	.LBE1302:
 4275               	.LBE1301:
 4276               	.LBB1303:
 4277               	.LBB1304:
 4278               	.LM538:
 4279 152e AEE3      		ldi r26,lo8(62)
 4280 1530 A093 C600 		sts 198,r26
 4281               	.L256:
 4282               	.LM539:
 4283 1534 8091 C000 		lds r24,192
 4284 1538 86FF      		sbrs r24,6
 4285 153a 00C0      		rjmp .L256
 4286               	.LVL276:
 4287               	.L521:
 4288               	.LM540:
 4289 153c 8091 C000 		lds r24,192
 4290 1540 8064      		ori r24,lo8(64)
 4291 1542 8093 C000 		sts 192,r24
 4292               	.LBE1304:
 4293               	.LBE1303:
 4294               	.LM541:
 4295 1546 C601      		movw r24,r12
 4296 1548 AA27      		clr r26
 4297 154a BB27      		clr r27
 4298 154c 0E94 0000 		call PrintHexByte
 4299               	.LM542:
 4300 1550 BB27      		clr r27
 4301 1552 AD2D      		mov r26,r13
 4302 1554 9C2D      		mov r25,r12
 4303 1556 8B2D      		mov r24,r11
 4304 1558 0E94 0000 		call PrintHexByte
 4305               	.LM543:
 4306 155c 8A2D      		mov r24,r10
 4307 155e 0E94 0000 		call PrintHexByte
 4308               	.LVL277:
 4309               	.L243:
 4310               	.LBB1305:
 4311               	.LBB1306:
 4312               	.LBB1307:
 4313               	.LBB1308:
 4314               	.LM544:
 4315 1562 BDE0      		ldi r27,lo8(13)
 4316 1564 B093 C600 		sts 198,r27
 4317               	.L257:
 4318               	.LM545:
 4319 1568 8091 C000 		lds r24,192
 4320               	.LVL278:
 4321 156c 86FF      		sbrs r24,6
 4322 156e 00C0      		rjmp .L257
 4323               	.LM546:
 4324 1570 8091 C000 		lds r24,192
 4325 1574 8064      		ori r24,lo8(64)
 4326 1576 8093 C000 		sts 192,r24
 4327               	.LBE1308:
 4328               	.LBE1307:
 4329               	.LBB1309:
 4330               	.LBB1310:
 4331               	.LM547:
 4332 157a EAE0      		ldi r30,lo8(10)
 4333 157c E093 C600 		sts 198,r30
 4334               	.L258:
 4335               	.LM548:
 4336 1580 8091 C000 		lds r24,192
 4337 1584 86FF      		sbrs r24,6
 4338 1586 00C0      		rjmp .L258
 4339               	.LM549:
 4340 1588 8091 C000 		lds r24,192
 4341 158c 8064      		ori r24,lo8(64)
 4342 158e 8093 C000 		sts 192,r24
 4343               	.LBE1310:
 4344               	.LBE1309:
 4345               	.LBE1306:
 4346               	.LBE1305:
 4347               	.LM550:
 4348 1592 CC5D      		subi r28,lo8(-292)
 4349 1594 DE4F      		sbci r29,hi8(-292)
 4350 1596 0881      		ld r16,Y
 4351 1598 1981      		ldd r17,Y+1
 4352 159a C452      		subi r28,lo8(292)
 4353 159c D140      		sbci r29,hi8(292)
 4354 159e 0933      		cpi r16,57
 4355 15a0 1105      		cpc r17,__zero_reg__
 4356 15a2 01F4      		brne .+2
 4357 15a4 00C0      		rjmp .L512
 4358 15a6 24E0      		ldi r18,lo8(4)
 4359 15a8 30E0      		ldi r19,hi8(4)
 4360 15aa 40E0      		ldi r20,hlo8(4)
 4361 15ac 50E0      		ldi r21,hhi8(4)
 4362               	.LVL279:
 4363 15ae 620E      		add r6,r18
 4364 15b0 731E      		adc r7,r19
 4365 15b2 841E      		adc r8,r20
 4366 15b4 951E      		adc r9,r21
 4367 15b6 00C0      		rjmp .L259
 4368               	.LVL280:
 4369               	.L529:
 4370               	.LBE1257:
 4371               	.LBE1256:
 4372               	.LM551:
 4373 15b8 80E0      		ldi r24,lo8(gTextMsg_HELP_MSG_Y)
 4374 15ba 90E0      		ldi r25,hi8(gTextMsg_HELP_MSG_Y)
 4375 15bc 62E0      		ldi r22,lo8(2)
 4376 15be 0E94 0000 		call PrintFromPROGMEMln
 4377               	.LVL281:
 4378 15c2 20E0      		ldi r18,lo8(gTextMsg_WHAT_PORT)
 4379 15c4 30E0      		ldi r19,hi8(gTextMsg_WHAT_PORT)
 4380               	.LVL282:
 4381               	.L262:
 4382               	.LBB1311:
 4383               	.LBB1312:
 4384               	.LBB1313:
 4385               	.LBB1314:
 4386               	.LBB1315:
 4387               	.LM552:
 4388 15c6 C901      		movw r24,r18
 4389               	.LVL283:
 4390 15c8 A0E0      		ldi r26,lo8(0)
 4391 15ca B0E0      		ldi r27,hi8(0)
 4392 15cc 2F5F      		subi r18,lo8(-(1))
 4393 15ce 3F4F      		sbci r19,hi8(-(1))
 4394               	/* #APP */
 4395               	 ;  1298 "stk500boot.c" 1
 4396 15d0 ABBF      		out 59, r26
 4397 15d2 FC01      		movw r30, r24
 4398 15d4 8791      		elpm r24, Z+
 4399               		
 4400               	 ;  0 "" 2
 4401               	.LVL284:
 4402               	/* #NOAPP */
 4403               	.LBE1315:
 4404               	.LM553:
 4405 15d6 8823      		tst r24
 4406 15d8 01F0      		breq .L394
 4407               	.LBB1316:
 4408               	.LBB1317:
 4409               	.LM554:
 4410 15da 8093 C600 		sts 198,r24
 4411               	.L261:
 4412               	.LM555:
 4413 15de 8091 C000 		lds r24,192
 4414               	.LVL285:
 4415 15e2 86FF      		sbrs r24,6
 4416 15e4 00C0      		rjmp .L261
 4417               	.LM556:
 4418 15e6 8091 C000 		lds r24,192
 4419 15ea 8064      		ori r24,lo8(64)
 4420 15ec 8093 C000 		sts 192,r24
 4421 15f0 00C0      		rjmp .L262
 4422               	.LVL286:
 4423               	.L394:
 4424               	.LBE1317:
 4425               	.LBE1316:
 4426               	.LBE1314:
 4427               	.LBE1313:
 4428               	.LBB1318:
 4429               	.LBB1319:
 4430               	.LM557:
 4431 15f2 8091 C000 		lds r24,192
 4432               	.LVL287:
 4433 15f6 87FF      		sbrs r24,7
 4434 15f8 00C0      		rjmp .L394
 4435               	.LM558:
 4436 15fa 9091 C600 		lds r25,198
 4437               	.LVL288:
 4438               	.LBE1319:
 4439               	.LBE1318:
 4440               	.LM559:
 4441 15fe 9F75      		andi r25,lo8(95)
 4442               	.LBB1320:
 4443               	.LBB1321:
 4444               	.LM560:
 4445 1600 9093 C600 		sts 198,r25
 4446               	.L263:
 4447               	.LM561:
 4448 1604 8091 C000 		lds r24,192
 4449 1608 86FF      		sbrs r24,6
 4450 160a 00C0      		rjmp .L263
 4451               	.LM562:
 4452 160c 8091 C000 		lds r24,192
 4453 1610 8064      		ori r24,lo8(64)
 4454 1612 8093 C000 		sts 192,r24
 4455               	.LBE1321:
 4456               	.LBE1320:
 4457               	.LBB1322:
 4458               	.LBB1323:
 4459               	.LBB1324:
 4460               	.LBB1325:
 4461               	.LM563:
 4462 1616 8DE0      		ldi r24,lo8(13)
 4463 1618 8093 C600 		sts 198,r24
 4464               	.L264:
 4465               	.LM564:
 4466 161c 8091 C000 		lds r24,192
 4467 1620 86FF      		sbrs r24,6
 4468 1622 00C0      		rjmp .L264
 4469               	.LM565:
 4470 1624 8091 C000 		lds r24,192
 4471 1628 8064      		ori r24,lo8(64)
 4472 162a 8093 C000 		sts 192,r24
 4473               	.LBE1325:
 4474               	.LBE1324:
 4475               	.LBB1326:
 4476               	.LBB1327:
 4477               	.LM566:
 4478 162e 8AE0      		ldi r24,lo8(10)
 4479 1630 8093 C600 		sts 198,r24
 4480               	.L265:
 4481               	.LM567:
 4482 1634 8091 C000 		lds r24,192
 4483 1638 86FF      		sbrs r24,6
 4484 163a 00C0      		rjmp .L265
 4485               	.LM568:
 4486 163c 8091 C000 		lds r24,192
 4487 1640 8064      		ori r24,lo8(64)
 4488 1642 8093 C000 		sts 192,r24
 4489               	.LBE1327:
 4490               	.LBE1326:
 4491               	.LBE1323:
 4492               	.LBE1322:
 4493               	.LM569:
 4494 1646 892F      		mov r24,r25
 4495 1648 8154      		subi r24,lo8(-(-65))
 4496 164a 8A31      		cpi r24,lo8(26)
 4497 164c 00F0      		brlo .+2
 4498 164e 00C0      		rjmp .L266
 4499               	.LM570:
 4500 1650 9634      		cpi r25,lo8(70)
 4501 1652 01F4      		brne .+2
 4502 1654 00C0      		rjmp .L273
 4503 1656 9734      		cpi r25,lo8(71)
 4504 1658 00F4      		brsh .L279
 4505 165a 9334      		cpi r25,lo8(67)
 4506 165c 01F4      		brne .+2
 4507 165e 00C0      		rjmp .L270
 4508 1660 9434      		cpi r25,lo8(68)
 4509 1662 00F4      		brsh .L280
 4510 1664 9134      		cpi r25,lo8(65)
 4511 1666 01F0      		breq .L268
 4512 1668 9234      		cpi r25,lo8(66)
 4513 166a 01F0      		breq .+2
 4514 166c 00C0      		rjmp .L267
 4515 166e 00C0      		rjmp .L530
 4516               	.L280:
 4517 1670 9434      		cpi r25,lo8(68)
 4518 1672 01F4      		brne .+2
 4519 1674 00C0      		rjmp .L271
 4520 1676 9534      		cpi r25,lo8(69)
 4521 1678 01F0      		breq .+2
 4522 167a 00C0      		rjmp .L267
 4523 167c 00C0      		rjmp .L531
 4524               	.L279:
 4525 167e 9A34      		cpi r25,lo8(74)
 4526 1680 01F4      		brne .+2
 4527 1682 00C0      		rjmp .L276
 4528 1684 9B34      		cpi r25,lo8(75)
 4529 1686 00F4      		brsh .L281
 4530 1688 9734      		cpi r25,lo8(71)
 4531 168a 01F4      		brne .+2
 4532 168c 00C0      		rjmp .L274
 4533 168e 9834      		cpi r25,lo8(72)
 4534 1690 01F0      		breq .+2
 4535 1692 00C0      		rjmp .L267
 4536 1694 00C0      		rjmp .L532
 4537               	.L281:
 4538 1696 9B34      		cpi r25,lo8(75)
 4539 1698 01F4      		brne .+2
 4540 169a 00C0      		rjmp .L277
 4541 169c 9C34      		cpi r25,lo8(76)
 4542 169e 01F0      		breq .+2
 4543 16a0 00C0      		rjmp .L267
 4544 16a2 00C0      		rjmp .L533
 4545               	.L268:
 4546               	.LM571:
 4547 16a4 8FEF      		ldi r24,lo8(-1)
 4548 16a6 81B9      		out 33-32,r24
 4549 16a8 00C0      		rjmp .L282
 4550               	.LVL289:
 4551               	.L284:
 4552               	.LM572:
 4553 16aa 82B1      		in r24,34-32
 4554 16ac 8095      		com r24
 4555 16ae 82B9      		out 34-32,r24
 4556 16b0 80E0      		ldi r24,lo8(0)
 4557 16b2 90E0      		ldi r25,hi8(0)
 4558               	.LVL290:
 4559               	.L283:
 4560               	.LBB1328:
 4561               	.LBB1329:
 4562               	.LBB1330:
 4563               	.LBB1331:
 4564               	.LBB1332:
 4565               	.LBB1333:
 4566               	.LM573:
 4567 16b4 E0ED      		ldi r30,lo8(2000)
 4568 16b6 F7E0      		ldi r31,hi8(2000)
 4569               	/* #APP */
 4570               	 ;  105 "/Applications/Arduino.app/Contents/Resources/Java/hardware/tools/avr/bin/../lib/gcc/avr/4.
 4571 16b8 3197      		1: sbiw r30,1
 4572 16ba 01F4      		brne 1b
 4573               	 ;  0 "" 2
 4574               	/* #NOAPP */
 4575               	.LBE1333:
 4576               	.LBE1332:
 4577               	.LBE1331:
 4578               	.LBE1330:
 4579               	.LM574:
 4580 16bc 0196      		adiw r24,1
 4581 16be 883C      		cpi r24,200
 4582 16c0 9105      		cpc r25,__zero_reg__
 4583 16c2 01F4      		brne .L283
 4584               	.L282:
 4585               	.LBE1329:
 4586               	.LBE1328:
 4587               	.LBB1334:
 4588               	.LBB1335:
 4589               	.LM575:
 4590 16c4 8091 C000 		lds r24,192
 4591               	.LVL291:
 4592               	.LBE1335:
 4593               	.LBE1334:
 4594               	.LM576:
 4595 16c8 87FF      		sbrs r24,7
 4596 16ca 00C0      		rjmp .L284
 4597               	.LM577:
 4598 16cc 12B8      		out 34-32,__zero_reg__
 4599 16ce 00C0      		rjmp .L393
 4600               	.LVL292:
 4601               	.L530:
 4602               	.LM578:
 4603 16d0 8FEF      		ldi r24,lo8(-1)
 4604 16d2 84B9      		out 36-32,r24
 4605 16d4 00C0      		rjmp .L286
 4606               	.LVL293:
 4607               	.L288:
 4608               	.LM579:
 4609 16d6 85B1      		in r24,37-32
 4610 16d8 8095      		com r24
 4611 16da 85B9      		out 37-32,r24
 4612 16dc 80E0      		ldi r24,lo8(0)
 4613 16de 90E0      		ldi r25,hi8(0)
 4614               	.LVL294:
 4615               	.L287:
 4616               	.LBB1336:
 4617               	.LBB1337:
 4618               	.LBB1338:
 4619               	.LBB1339:
 4620               	.LBB1340:
 4621               	.LBB1341:
 4622               	.LM580:
 4623 16e0 E0ED      		ldi r30,lo8(2000)
 4624 16e2 F7E0      		ldi r31,hi8(2000)
 4625               	/* #APP */
 4626               	 ;  105 "/Applications/Arduino.app/Contents/Resources/Java/hardware/tools/avr/bin/../lib/gcc/avr/4.
 4627 16e4 3197      		1: sbiw r30,1
 4628 16e6 01F4      		brne 1b
 4629               	 ;  0 "" 2
 4630               	/* #NOAPP */
 4631               	.LBE1341:
 4632               	.LBE1340:
 4633               	.LBE1339:
 4634               	.LBE1338:
 4635               	.LM581:
 4636 16e8 0196      		adiw r24,1
 4637 16ea 883C      		cpi r24,200
 4638 16ec 9105      		cpc r25,__zero_reg__
 4639 16ee 01F4      		brne .L287
 4640               	.L286:
 4641               	.LBE1337:
 4642               	.LBE1336:
 4643               	.LBB1342:
 4644               	.LBB1343:
 4645               	.LM582:
 4646 16f0 8091 C000 		lds r24,192
 4647               	.LVL295:
 4648               	.LBE1343:
 4649               	.LBE1342:
 4650               	.LM583:
 4651 16f4 87FF      		sbrs r24,7
 4652 16f6 00C0      		rjmp .L288
 4653               	.LM584:
 4654 16f8 15B8      		out 37-32,__zero_reg__
 4655 16fa 00C0      		rjmp .L393
 4656               	.LVL296:
 4657               	.L270:
 4658               	.LM585:
 4659 16fc 8FEF      		ldi r24,lo8(-1)
 4660 16fe 87B9      		out 39-32,r24
 4661 1700 00C0      		rjmp .L289
 4662               	.LVL297:
 4663               	.L291:
 4664               	.LM586:
 4665 1702 88B1      		in r24,40-32
 4666 1704 8095      		com r24
 4667 1706 88B9      		out 40-32,r24
 4668 1708 80E0      		ldi r24,lo8(0)
 4669 170a 90E0      		ldi r25,hi8(0)
 4670               	.LVL298:
 4671               	.L290:
 4672               	.LBB1344:
 4673               	.LBB1345:
 4674               	.LBB1346:
 4675               	.LBB1347:
 4676               	.LBB1348:
 4677               	.LBB1349:
 4678               	.LM587:
 4679 170c E0ED      		ldi r30,lo8(2000)
 4680 170e F7E0      		ldi r31,hi8(2000)
 4681               	/* #APP */
 4682               	 ;  105 "/Applications/Arduino.app/Contents/Resources/Java/hardware/tools/avr/bin/../lib/gcc/avr/4.
 4683 1710 3197      		1: sbiw r30,1
 4684 1712 01F4      		brne 1b
 4685               	 ;  0 "" 2
 4686               	/* #NOAPP */
 4687               	.LBE1349:
 4688               	.LBE1348:
 4689               	.LBE1347:
 4690               	.LBE1346:
 4691               	.LM588:
 4692 1714 0196      		adiw r24,1
 4693 1716 883C      		cpi r24,200
 4694 1718 9105      		cpc r25,__zero_reg__
 4695 171a 01F4      		brne .L290
 4696               	.L289:
 4697               	.LBE1345:
 4698               	.LBE1344:
 4699               	.LBB1350:
 4700               	.LBB1351:
 4701               	.LM589:
 4702 171c 8091 C000 		lds r24,192
 4703               	.LVL299:
 4704               	.LBE1351:
 4705               	.LBE1350:
 4706               	.LM590:
 4707 1720 87FF      		sbrs r24,7
 4708 1722 00C0      		rjmp .L291
 4709               	.LM591:
 4710 1724 18B8      		out 40-32,__zero_reg__
 4711 1726 00C0      		rjmp .L393
 4712               	.LVL300:
 4713               	.L271:
 4714               	.LM592:
 4715 1728 8FEF      		ldi r24,lo8(-1)
 4716 172a 8AB9      		out 42-32,r24
 4717 172c 00C0      		rjmp .L292
 4718               	.LVL301:
 4719               	.L294:
 4720               	.LM593:
 4721 172e 8BB1      		in r24,43-32
 4722 1730 8095      		com r24
 4723 1732 8BB9      		out 43-32,r24
 4724 1734 80E0      		ldi r24,lo8(0)
 4725 1736 90E0      		ldi r25,hi8(0)
 4726               	.LVL302:
 4727               	.L293:
 4728               	.LBB1352:
 4729               	.LBB1353:
 4730               	.LBB1354:
 4731               	.LBB1355:
 4732               	.LBB1356:
 4733               	.LBB1357:
 4734               	.LM594:
 4735 1738 E0ED      		ldi r30,lo8(2000)
 4736 173a F7E0      		ldi r31,hi8(2000)
 4737               	/* #APP */
 4738               	 ;  105 "/Applications/Arduino.app/Contents/Resources/Java/hardware/tools/avr/bin/../lib/gcc/avr/4.
 4739 173c 3197      		1: sbiw r30,1
 4740 173e 01F4      		brne 1b
 4741               	 ;  0 "" 2
 4742               	/* #NOAPP */
 4743               	.LBE1357:
 4744               	.LBE1356:
 4745               	.LBE1355:
 4746               	.LBE1354:
 4747               	.LM595:
 4748 1740 0196      		adiw r24,1
 4749 1742 883C      		cpi r24,200
 4750 1744 9105      		cpc r25,__zero_reg__
 4751 1746 01F4      		brne .L293
 4752               	.L292:
 4753               	.LBE1353:
 4754               	.LBE1352:
 4755               	.LBB1358:
 4756               	.LBB1359:
 4757               	.LM596:
 4758 1748 8091 C000 		lds r24,192
 4759               	.LVL303:
 4760               	.LBE1359:
 4761               	.LBE1358:
 4762               	.LM597:
 4763 174c 87FF      		sbrs r24,7
 4764 174e 00C0      		rjmp .L294
 4765               	.LM598:
 4766 1750 1BB8      		out 43-32,__zero_reg__
 4767 1752 00C0      		rjmp .L393
 4768               	.LVL304:
 4769               	.L531:
 4770               	.LM599:
 4771 1754 8FEF      		ldi r24,lo8(-1)
 4772 1756 8DB9      		out 45-32,r24
 4773 1758 00C0      		rjmp .L295
 4774               	.LVL305:
 4775               	.L297:
 4776               	.LM600:
 4777 175a 8EB1      		in r24,46-32
 4778 175c 8095      		com r24
 4779 175e 8EB9      		out 46-32,r24
 4780 1760 80E0      		ldi r24,lo8(0)
 4781 1762 90E0      		ldi r25,hi8(0)
 4782               	.LVL306:
 4783               	.L296:
 4784               	.LBB1360:
 4785               	.LBB1361:
 4786               	.LBB1362:
 4787               	.LBB1363:
 4788               	.LBB1364:
 4789               	.LBB1365:
 4790               	.LM601:
 4791 1764 E0ED      		ldi r30,lo8(2000)
 4792 1766 F7E0      		ldi r31,hi8(2000)
 4793               	/* #APP */
 4794               	 ;  105 "/Applications/Arduino.app/Contents/Resources/Java/hardware/tools/avr/bin/../lib/gcc/avr/4.
 4795 1768 3197      		1: sbiw r30,1
 4796 176a 01F4      		brne 1b
 4797               	 ;  0 "" 2
 4798               	/* #NOAPP */
 4799               	.LBE1365:
 4800               	.LBE1364:
 4801               	.LBE1363:
 4802               	.LBE1362:
 4803               	.LM602:
 4804 176c 0196      		adiw r24,1
 4805 176e 883C      		cpi r24,200
 4806 1770 9105      		cpc r25,__zero_reg__
 4807 1772 01F4      		brne .L296
 4808               	.L295:
 4809               	.LBE1361:
 4810               	.LBE1360:
 4811               	.LBB1366:
 4812               	.LBB1367:
 4813               	.LM603:
 4814 1774 8091 C000 		lds r24,192
 4815               	.LVL307:
 4816               	.LBE1367:
 4817               	.LBE1366:
 4818               	.LM604:
 4819 1778 87FF      		sbrs r24,7
 4820 177a 00C0      		rjmp .L297
 4821               	.LM605:
 4822 177c 1EB8      		out 46-32,__zero_reg__
 4823 177e 00C0      		rjmp .L393
 4824               	.LVL308:
 4825               	.L273:
 4826               	.LM606:
 4827 1780 8FEF      		ldi r24,lo8(-1)
 4828 1782 80BB      		out 48-32,r24
 4829 1784 00C0      		rjmp .L298
 4830               	.LVL309:
 4831               	.L300:
 4832               	.LM607:
 4833 1786 81B3      		in r24,49-32
 4834 1788 8095      		com r24
 4835 178a 81BB      		out 49-32,r24
 4836 178c 80E0      		ldi r24,lo8(0)
 4837 178e 90E0      		ldi r25,hi8(0)
 4838               	.LVL310:
 4839               	.L299:
 4840               	.LBB1368:
 4841               	.LBB1369:
 4842               	.LBB1370:
 4843               	.LBB1371:
 4844               	.LBB1372:
 4845               	.LBB1373:
 4846               	.LM608:
 4847 1790 E0ED      		ldi r30,lo8(2000)
 4848 1792 F7E0      		ldi r31,hi8(2000)
 4849               	/* #APP */
 4850               	 ;  105 "/Applications/Arduino.app/Contents/Resources/Java/hardware/tools/avr/bin/../lib/gcc/avr/4.
 4851 1794 3197      		1: sbiw r30,1
 4852 1796 01F4      		brne 1b
 4853               	 ;  0 "" 2
 4854               	/* #NOAPP */
 4855               	.LBE1373:
 4856               	.LBE1372:
 4857               	.LBE1371:
 4858               	.LBE1370:
 4859               	.LM609:
 4860 1798 0196      		adiw r24,1
 4861 179a 883C      		cpi r24,200
 4862 179c 9105      		cpc r25,__zero_reg__
 4863 179e 01F4      		brne .L299
 4864               	.L298:
 4865               	.LBE1369:
 4866               	.LBE1368:
 4867               	.LBB1374:
 4868               	.LBB1375:
 4869               	.LM610:
 4870 17a0 8091 C000 		lds r24,192
 4871               	.LVL311:
 4872               	.LBE1375:
 4873               	.LBE1374:
 4874               	.LM611:
 4875 17a4 87FF      		sbrs r24,7
 4876 17a6 00C0      		rjmp .L300
 4877               	.LM612:
 4878 17a8 11BA      		out 49-32,__zero_reg__
 4879 17aa 00C0      		rjmp .L393
 4880               	.LVL312:
 4881               	.L274:
 4882               	.LM613:
 4883 17ac 8FEF      		ldi r24,lo8(-1)
 4884 17ae 83BB      		out 51-32,r24
 4885 17b0 00C0      		rjmp .L301
 4886               	.LVL313:
 4887               	.L303:
 4888               	.LM614:
 4889 17b2 84B3      		in r24,52-32
 4890 17b4 8095      		com r24
 4891 17b6 84BB      		out 52-32,r24
 4892 17b8 80E0      		ldi r24,lo8(0)
 4893 17ba 90E0      		ldi r25,hi8(0)
 4894               	.LVL314:
 4895               	.L302:
 4896               	.LBB1376:
 4897               	.LBB1377:
 4898               	.LBB1378:
 4899               	.LBB1379:
 4900               	.LBB1380:
 4901               	.LBB1381:
 4902               	.LM615:
 4903 17bc E0ED      		ldi r30,lo8(2000)
 4904 17be F7E0      		ldi r31,hi8(2000)
 4905               	/* #APP */
 4906               	 ;  105 "/Applications/Arduino.app/Contents/Resources/Java/hardware/tools/avr/bin/../lib/gcc/avr/4.
 4907 17c0 3197      		1: sbiw r30,1
 4908 17c2 01F4      		brne 1b
 4909               	 ;  0 "" 2
 4910               	/* #NOAPP */
 4911               	.LBE1381:
 4912               	.LBE1380:
 4913               	.LBE1379:
 4914               	.LBE1378:
 4915               	.LM616:
 4916 17c4 0196      		adiw r24,1
 4917 17c6 883C      		cpi r24,200
 4918 17c8 9105      		cpc r25,__zero_reg__
 4919 17ca 01F4      		brne .L302
 4920               	.L301:
 4921               	.LBE1377:
 4922               	.LBE1376:
 4923               	.LBB1382:
 4924               	.LBB1383:
 4925               	.LM617:
 4926 17cc 8091 C000 		lds r24,192
 4927               	.LVL315:
 4928               	.LBE1383:
 4929               	.LBE1382:
 4930               	.LM618:
 4931 17d0 87FF      		sbrs r24,7
 4932 17d2 00C0      		rjmp .L303
 4933               	.LM619:
 4934 17d4 14BA      		out 52-32,__zero_reg__
 4935 17d6 00C0      		rjmp .L393
 4936               	.LVL316:
 4937               	.L532:
 4938               	.LM620:
 4939 17d8 8FEF      		ldi r24,lo8(-1)
 4940 17da 8093 0101 		sts 257,r24
 4941 17de 00C0      		rjmp .L304
 4942               	.LVL317:
 4943               	.L306:
 4944               	.LM621:
 4945 17e0 8091 0201 		lds r24,258
 4946 17e4 8095      		com r24
 4947 17e6 8093 0201 		sts 258,r24
 4948 17ea 80E0      		ldi r24,lo8(0)
 4949 17ec 90E0      		ldi r25,hi8(0)
 4950               	.LVL318:
 4951               	.L305:
 4952               	.LBB1384:
 4953               	.LBB1385:
 4954               	.LBB1386:
 4955               	.LBB1387:
 4956               	.LBB1388:
 4957               	.LBB1389:
 4958               	.LM622:
 4959 17ee E0ED      		ldi r30,lo8(2000)
 4960 17f0 F7E0      		ldi r31,hi8(2000)
 4961               	/* #APP */
 4962               	 ;  105 "/Applications/Arduino.app/Contents/Resources/Java/hardware/tools/avr/bin/../lib/gcc/avr/4.
 4963 17f2 3197      		1: sbiw r30,1
 4964 17f4 01F4      		brne 1b
 4965               	 ;  0 "" 2
 4966               	/* #NOAPP */
 4967               	.LBE1389:
 4968               	.LBE1388:
 4969               	.LBE1387:
 4970               	.LBE1386:
 4971               	.LM623:
 4972 17f6 0196      		adiw r24,1
 4973 17f8 883C      		cpi r24,200
 4974 17fa 9105      		cpc r25,__zero_reg__
 4975 17fc 01F4      		brne .L305
 4976               	.L304:
 4977               	.LBE1385:
 4978               	.LBE1384:
 4979               	.LBB1390:
 4980               	.LBB1391:
 4981               	.LM624:
 4982 17fe 8091 C000 		lds r24,192
 4983               	.LVL319:
 4984               	.LBE1391:
 4985               	.LBE1390:
 4986               	.LM625:
 4987 1802 87FF      		sbrs r24,7
 4988 1804 00C0      		rjmp .L306
 4989               	.LM626:
 4990 1806 1092 0201 		sts 258,__zero_reg__
 4991 180a 00C0      		rjmp .L393
 4992               	.LVL320:
 4993               	.L276:
 4994               	.LM627:
 4995 180c 8FEF      		ldi r24,lo8(-1)
 4996 180e 8093 0401 		sts 260,r24
 4997 1812 00C0      		rjmp .L307
 4998               	.LVL321:
 4999               	.L309:
 5000               	.LM628:
 5001 1814 8091 0501 		lds r24,261
 5002 1818 8095      		com r24
 5003 181a 8093 0501 		sts 261,r24
 5004 181e 80E0      		ldi r24,lo8(0)
 5005 1820 90E0      		ldi r25,hi8(0)
 5006               	.LVL322:
 5007               	.L308:
 5008               	.LBB1392:
 5009               	.LBB1393:
 5010               	.LBB1394:
 5011               	.LBB1395:
 5012               	.LBB1396:
 5013               	.LBB1397:
 5014               	.LM629:
 5015 1822 E0ED      		ldi r30,lo8(2000)
 5016 1824 F7E0      		ldi r31,hi8(2000)
 5017               	/* #APP */
 5018               	 ;  105 "/Applications/Arduino.app/Contents/Resources/Java/hardware/tools/avr/bin/../lib/gcc/avr/4.
 5019 1826 3197      		1: sbiw r30,1
 5020 1828 01F4      		brne 1b
 5021               	 ;  0 "" 2
 5022               	/* #NOAPP */
 5023               	.LBE1397:
 5024               	.LBE1396:
 5025               	.LBE1395:
 5026               	.LBE1394:
 5027               	.LM630:
 5028 182a 0196      		adiw r24,1
 5029 182c 883C      		cpi r24,200
 5030 182e 9105      		cpc r25,__zero_reg__
 5031 1830 01F4      		brne .L308
 5032               	.L307:
 5033               	.LBE1393:
 5034               	.LBE1392:
 5035               	.LBB1398:
 5036               	.LBB1399:
 5037               	.LM631:
 5038 1832 8091 C000 		lds r24,192
 5039               	.LVL323:
 5040               	.LBE1399:
 5041               	.LBE1398:
 5042               	.LM632:
 5043 1836 87FF      		sbrs r24,7
 5044 1838 00C0      		rjmp .L309
 5045               	.LM633:
 5046 183a 1092 0501 		sts 261,__zero_reg__
 5047 183e 00C0      		rjmp .L393
 5048               	.LVL324:
 5049               	.L277:
 5050               	.LM634:
 5051 1840 8FEF      		ldi r24,lo8(-1)
 5052 1842 8093 0701 		sts 263,r24
 5053 1846 00C0      		rjmp .L310
 5054               	.LVL325:
 5055               	.L312:
 5056               	.LM635:
 5057 1848 8091 0801 		lds r24,264
 5058 184c 8095      		com r24
 5059 184e 8093 0801 		sts 264,r24
 5060 1852 80E0      		ldi r24,lo8(0)
 5061 1854 90E0      		ldi r25,hi8(0)
 5062               	.LVL326:
 5063               	.L311:
 5064               	.LBB1400:
 5065               	.LBB1401:
 5066               	.LBB1402:
 5067               	.LBB1403:
 5068               	.LBB1404:
 5069               	.LBB1405:
 5070               	.LM636:
 5071 1856 E0ED      		ldi r30,lo8(2000)
 5072 1858 F7E0      		ldi r31,hi8(2000)
 5073               	/* #APP */
 5074               	 ;  105 "/Applications/Arduino.app/Contents/Resources/Java/hardware/tools/avr/bin/../lib/gcc/avr/4.
 5075 185a 3197      		1: sbiw r30,1
 5076 185c 01F4      		brne 1b
 5077               	 ;  0 "" 2
 5078               	/* #NOAPP */
 5079               	.LBE1405:
 5080               	.LBE1404:
 5081               	.LBE1403:
 5082               	.LBE1402:
 5083               	.LM637:
 5084 185e 0196      		adiw r24,1
 5085 1860 883C      		cpi r24,200
 5086 1862 9105      		cpc r25,__zero_reg__
 5087 1864 01F4      		brne .L311
 5088               	.L310:
 5089               	.LBE1401:
 5090               	.LBE1400:
 5091               	.LBB1406:
 5092               	.LBB1407:
 5093               	.LM638:
 5094 1866 8091 C000 		lds r24,192
 5095               	.LVL327:
 5096               	.LBE1407:
 5097               	.LBE1406:
 5098               	.LM639:
 5099 186a 87FF      		sbrs r24,7
 5100 186c 00C0      		rjmp .L312
 5101               	.LM640:
 5102 186e 1092 0801 		sts 264,__zero_reg__
 5103 1872 00C0      		rjmp .L393
 5104               	.LVL328:
 5105               	.L533:
 5106               	.LM641:
 5107 1874 8FEF      		ldi r24,lo8(-1)
 5108 1876 8093 0A01 		sts 266,r24
 5109 187a 00C0      		rjmp .L313
 5110               	.LVL329:
 5111               	.L315:
 5112               	.LM642:
 5113 187c 8091 0B01 		lds r24,267
 5114 1880 8095      		com r24
 5115 1882 8093 0B01 		sts 267,r24
 5116 1886 80E0      		ldi r24,lo8(0)
 5117 1888 90E0      		ldi r25,hi8(0)
 5118               	.LVL330:
 5119               	.L314:
 5120               	.LBB1408:
 5121               	.LBB1409:
 5122               	.LBB1410:
 5123               	.LBB1411:
 5124               	.LBB1412:
 5125               	.LBB1413:
 5126               	.LM643:
 5127 188a E0ED      		ldi r30,lo8(2000)
 5128 188c F7E0      		ldi r31,hi8(2000)
 5129               	/* #APP */
 5130               	 ;  105 "/Applications/Arduino.app/Contents/Resources/Java/hardware/tools/avr/bin/../lib/gcc/avr/4.
 5131 188e 3197      		1: sbiw r30,1
 5132 1890 01F4      		brne 1b
 5133               	 ;  0 "" 2
 5134               	/* #NOAPP */
 5135               	.LBE1413:
 5136               	.LBE1412:
 5137               	.LBE1411:
 5138               	.LBE1410:
 5139               	.LM644:
 5140 1892 0196      		adiw r24,1
 5141 1894 883C      		cpi r24,200
 5142 1896 9105      		cpc r25,__zero_reg__
 5143 1898 01F4      		brne .L314
 5144               	.L313:
 5145               	.LBE1409:
 5146               	.LBE1408:
 5147               	.LBB1414:
 5148               	.LBB1415:
 5149               	.LM645:
 5150 189a 8091 C000 		lds r24,192
 5151               	.LVL331:
 5152               	.LBE1415:
 5153               	.LBE1414:
 5154               	.LM646:
 5155 189e 87FF      		sbrs r24,7
 5156 18a0 00C0      		rjmp .L315
 5157               	.LM647:
 5158 18a2 1092 0B01 		sts 267,__zero_reg__
 5159 18a6 00C0      		rjmp .L393
 5160               	.LVL332:
 5161               	.L267:
 5162               	.LM648:
 5163 18a8 80E0      		ldi r24,lo8(gTextMsg_PortNotSupported)
 5164 18aa 90E0      		ldi r25,hi8(gTextMsg_PortNotSupported)
 5165 18ac 0C94 0000 		jmp .L518
 5166               	.LVL333:
 5167               	.L393:
 5168               	.LBB1416:
 5169               	.LBB1417:
 5170               	.LM649:
 5171 18b0 8091 C000 		lds r24,192
 5172 18b4 87FF      		sbrs r24,7
 5173 18b6 00C0      		rjmp .L393
 5174               	.LVL334:
 5175               	.L520:
 5176               	.LM650:
 5177 18b8 8091 C600 		lds r24,198
 5178 18bc 0C94 0000 		jmp .L512
 5179               	.LVL335:
 5180               	.L266:
 5181               	.LBE1417:
 5182               	.LBE1416:
 5183               	.LM651:
 5184 18c0 80E0      		ldi r24,lo8(gTextMsg_MustBeLetter)
 5185 18c2 90E0      		ldi r25,hi8(gTextMsg_MustBeLetter)
 5186 18c4 0C94 0000 		jmp .L518
 5187               	.LVL336:
 5188               	.L131:
 5189               	.LBE1312:
 5190               	.LBE1311:
 5191               	.LM652:
 5192 18c8 80E0      		ldi r24,lo8(gTextMsg_HUH)
 5193 18ca 90E0      		ldi r25,hi8(gTextMsg_HUH)
 5194 18cc 0C94 0000 		jmp .L518
 5195               	.LVL337:
 5196               	.L116:
 5197 18d0 AA24      		clr r10
 5198 18d2 BB24      		clr r11
 5199               	.L117:
 5200               	.LBE1043:
 5201               	.LBE1042:
 5202               	.LM653:
 5203 18d4 9330      		cpi r25,lo8(3)
 5204 18d6 01F0      		breq .L320
 5205 18d8 9430      		cpi r25,lo8(4)
 5206 18da 00F4      		brsh .L324
 5207 18dc 9130      		cpi r25,lo8(1)
 5208 18de 01F0      		breq .L318
 5209 18e0 9230      		cpi r25,lo8(2)
 5210 18e2 00F4      		brsh .L319
 5211 18e4 00C0      		rjmp .L534
 5212               	.L324:
 5213 18e6 9530      		cpi r25,lo8(5)
 5214 18e8 01F0      		breq .L322
 5215 18ea 9530      		cpi r25,lo8(5)
 5216 18ec 00F0      		brlo .L321
 5217 18ee 9630      		cpi r25,lo8(6)
 5218 18f0 01F0      		breq .+2
 5219 18f2 00C0      		rjmp .L515
 5220 18f4 00C0      		rjmp .L535
 5221               	.L534:
 5222               	.LM654:
 5223 18f6 2B31      		cpi r18,lo8(27)
 5224 18f8 01F0      		breq .+4
 5225 18fa 0C94 0000 		jmp .L513
 5226 18fe 91E0      		ldi r25,lo8(1)
 5227 1900 6BE1      		ldi r22,lo8(27)
 5228 1902 0C94 0000 		jmp .L513
 5229               	.L318:
 5230               	.LM655:
 5231 1906 6227      		eor r22,r18
 5232 1908 C15D      		subi r28,lo8(-303)
 5233 190a DE4F      		sbci r29,hi8(-303)
 5234 190c 2883      		st Y,r18
 5235 190e CF52      		subi r28,lo8(303)
 5236 1910 D140      		sbci r29,hi8(303)
 5237               	.LVL338:
 5238 1912 92E0      		ldi r25,lo8(2)
 5239 1914 0C94 0000 		jmp .L513
 5240               	.L319:
 5241               	.LM656:
 5242 1918 B22F      		mov r27,r18
 5243               	.LVL339:
 5244 191a A0E0      		ldi r26,lo8(0)
 5245               	.LVL340:
 5246               	.LM657:
 5247 191c 6227      		eor r22,r18
 5248 191e 93E0      		ldi r25,lo8(3)
 5249 1920 0C94 0000 		jmp .L513
 5250               	.LVL341:
 5251               	.L320:
 5252               	.LM658:
 5253 1924 822F      		mov r24,r18
 5254 1926 90E0      		ldi r25,lo8(0)
 5255               	.LVL342:
 5256 1928 A82B      		or r26,r24
 5257 192a B92B      		or r27,r25
 5258               	.LM659:
 5259 192c 6227      		eor r22,r18
 5260 192e 94E0      		ldi r25,lo8(4)
 5261               	.LVL343:
 5262 1930 0C94 0000 		jmp .L513
 5263               	.LVL344:
 5264               	.L321:
 5265               	.LM660:
 5266 1934 2E30      		cpi r18,lo8(14)
 5267 1936 01F0      		breq .+2
 5268 1938 00C0      		rjmp .L326
 5269               	.LM661:
 5270 193a 6227      		eor r22,r18
 5271 193c 95E0      		ldi r25,lo8(5)
 5272 193e C05D      		subi r28,lo8(-304)
 5273 1940 DE4F      		sbci r29,hi8(-304)
 5274 1942 1982      		std Y+1,__zero_reg__
 5275 1944 1882      		st Y,__zero_reg__
 5276 1946 C053      		subi r28,lo8(304)
 5277 1948 D140      		sbci r29,hi8(304)
 5278               	.LVL345:
 5279 194a 0C94 0000 		jmp .L513
 5280               	.L322:
 5281               	.LM662:
 5282 194e C05D      		subi r28,lo8(-304)
 5283 1950 DE4F      		sbci r29,hi8(-304)
 5284 1952 E881      		ld r30,Y
 5285 1954 F981      		ldd r31,Y+1
 5286 1956 C053      		subi r28,lo8(304)
 5287 1958 D140      		sbci r29,hi8(304)
 5288               	.LVL346:
 5289 195a E00F      		add r30,r16
 5290 195c F11F      		adc r31,r17
 5291 195e 2083      		st Z,r18
 5292 1960 C05D      		subi r28,lo8(-304)
 5293 1962 DE4F      		sbci r29,hi8(-304)
 5294 1964 4881      		ld r20,Y
 5295 1966 5981      		ldd r21,Y+1
 5296 1968 C053      		subi r28,lo8(304)
 5297 196a D140      		sbci r29,hi8(304)
 5298 196c 4F5F      		subi r20,lo8(-(1))
 5299 196e 5F4F      		sbci r21,hi8(-(1))
 5300 1970 C05D      		subi r28,lo8(-304)
 5301 1972 DE4F      		sbci r29,hi8(-304)
 5302 1974 5983      		std Y+1,r21
 5303 1976 4883      		st Y,r20
 5304 1978 C053      		subi r28,lo8(304)
 5305 197a D140      		sbci r29,hi8(304)
 5306               	.LVL347:
 5307               	.LM663:
 5308 197c 6227      		eor r22,r18
 5309               	.LM664:
 5310 197e 4A17      		cp r20,r26
 5311 1980 5B07      		cpc r21,r27
 5312 1982 01F0      		breq .+4
 5313 1984 0C94 0000 		jmp .L513
 5314 1988 DA01      		movw r26,r20
 5315 198a 96E0      		ldi r25,lo8(6)
 5316 198c 0C94 0000 		jmp .L513
 5317               	.LVL348:
 5318               	.L535:
 5319               	.LM665:
 5320 1990 2617      		cp r18,r22
 5321 1992 01F0      		breq .+2
 5322 1994 00C0      		rjmp .L326
 5323 1996 00C0      		rjmp .L327
 5324               	.L515:
 5325               	.LM666:
 5326 1998 9730      		cpi r25,lo8(7)
 5327 199a 01F0      		breq .+4
 5328 199c 0C94 0000 		jmp .L513
 5329               	.L327:
 5330 19a0 9924      		clr r9
 5331               	.LVL349:
 5332               	.L231:
 5333               	.LM667:
 5334 19a2 9981      		ldd r25,Y+1
 5335               	.LVL350:
 5336 19a4 9331      		cpi r25,lo8(19)
 5337 19a6 01F4      		brne .+2
 5338 19a8 00C0      		rjmp .L335
 5339 19aa 9431      		cpi r25,lo8(20)
 5340 19ac 00F4      		brsh .L342
 5341 19ae 9630      		cpi r25,lo8(6)
 5342 19b0 01F4      		brne .+2
 5343 19b2 00C0      		rjmp .L332
 5344 19b4 9730      		cpi r25,lo8(7)
 5345 19b6 00F4      		brsh .L343
 5346 19b8 9230      		cpi r25,lo8(2)
 5347 19ba 01F4      		brne .+2
 5348 19bc 00C0      		rjmp .L525
 5349 19be 9330      		cpi r25,lo8(3)
 5350 19c0 01F4      		brne .+2
 5351 19c2 00C0      		rjmp .L331
 5352 19c4 9130      		cpi r25,lo8(1)
 5353 19c6 01F0      		breq .+2
 5354 19c8 00C0      		rjmp .L328
 5355 19ca 00C0      		rjmp .L536
 5356               	.L343:
 5357 19cc 9131      		cpi r25,lo8(17)
 5358 19ce 01F4      		brne .+2
 5359 19d0 00C0      		rjmp .L333
 5360 19d2 9231      		cpi r25,lo8(18)
 5361 19d4 00F0      		brlo .+2
 5362 19d6 00C0      		rjmp .L334
 5363 19d8 9031      		cpi r25,lo8(16)
 5364 19da 01F0      		breq .+2
 5365 19dc 00C0      		rjmp .L328
 5366 19de 00C0      		rjmp .L525
 5367               	.L342:
 5368 19e0 9831      		cpi r25,lo8(24)
 5369 19e2 01F4      		brne .+2
 5370 19e4 00C0      		rjmp .L337
 5371 19e6 9931      		cpi r25,lo8(25)
 5372 19e8 00F4      		brsh .L344
 5373 19ea 9531      		cpi r25,lo8(21)
 5374 19ec 01F4      		brne .+2
 5375 19ee 00C0      		rjmp .L335
 5376 19f0 9531      		cpi r25,lo8(21)
 5377 19f2 00F4      		brsh .+2
 5378 19f4 00C0      		rjmp .L336
 5379 19f6 9631      		cpi r25,lo8(22)
 5380 19f8 01F0      		breq .+2
 5381 19fa 00C0      		rjmp .L328
 5382 19fc 00C0      		rjmp .L336
 5383               	.L344:
 5384 19fe 9A31      		cpi r25,lo8(26)
 5385 1a00 01F4      		brne .+2
 5386 1a02 00C0      		rjmp .L339
 5387 1a04 9A31      		cpi r25,lo8(26)
 5388 1a06 00F4      		brsh .+2
 5389 1a08 00C0      		rjmp .L338
 5390 1a0a 9B31      		cpi r25,lo8(27)
 5391 1a0c 01F4      		brne .+2
 5392 1a0e 00C0      		rjmp .L340
 5393 1a10 9D31      		cpi r25,lo8(29)
 5394 1a12 01F0      		breq .+2
 5395 1a14 00C0      		rjmp .L328
 5396               	.LBB1418:
 5397               	.LM668:
 5398 1a16 9D81      		ldd r25,Y+5
 5399 1a18 9033      		cpi r25,lo8(48)
 5400 1a1a 01F4      		brne .L345
 5401               	.LBB1419:
 5402               	.LM669:
 5403 1a1c 8F81      		ldd r24,Y+7
 5404               	.LVL351:
 5405               	.LM670:
 5406 1a1e 8823      		tst r24
 5407 1a20 01F4      		brne .L346
 5408 1a22 9EE1      		ldi r25,lo8(30)
 5409               	.LVL352:
 5410 1a24 00C0      		rjmp .L347
 5411               	.LVL353:
 5412               	.L346:
 5413               	.LM671:
 5414 1a26 8130      		cpi r24,lo8(1)
 5415 1a28 01F0      		breq .L348
 5416 1a2a 93E0      		ldi r25,lo8(3)
 5417               	.LVL354:
 5418 1a2c 00C0      		rjmp .L347
 5419               	.LVL355:
 5420               	.L348:
 5421 1a2e 97E9      		ldi r25,lo8(-105)
 5422               	.LVL356:
 5423 1a30 00C0      		rjmp .L347
 5424               	.LVL357:
 5425               	.L345:
 5426               	.LBE1419:
 5427               	.LM672:
 5428 1a32 892F      		mov r24,r25
 5429 1a34 8075      		andi r24,lo8(80)
 5430 1a36 01F0      		breq .L349
 5431               	.LM673:
 5432 1a38 9035      		cpi r25,lo8(80)
 5433 1a3a 01F4      		brne .L350
 5434               	.LBB1420:
 5435               	.LM674:
 5436 1a3c 89E0      		ldi r24,lo8(9)
 5437               	/* #APP */
 5438               	 ;  822 "stk500boot.c" 1
 5439 1a3e E0E0      		ldi r30, 0
 5440 1a40 F0E0      		ldi r31, 0
 5441 1a42 8093 5700 		sts 87, r24
 5442 1a46 9491      		lpm r25, Z
 5443               		
 5444               	 ;  0 "" 2
 5445               	.LVL358:
 5446               	/* #NOAPP */
 5447 1a48 00C0      		rjmp .L347
 5448               	.LVL359:
 5449               	.L350:
 5450               	.LBE1420:
 5451               	.LM675:
 5452 1a4a 9835      		cpi r25,lo8(88)
 5453 1a4c 01F4      		brne .L349
 5454               	.LBB1421:
 5455               	.LM676:
 5456 1a4e 89E0      		ldi r24,lo8(9)
 5457               	/* #APP */
 5458               	 ;  826 "stk500boot.c" 1
 5459 1a50 E3E0      		ldi r30, 3
 5460 1a52 F0E0      		ldi r31, 0
 5461 1a54 8093 5700 		sts 87, r24
 5462 1a58 9491      		lpm r25, Z
 5463               		
 5464               	 ;  0 "" 2
 5465               	.LVL360:
 5466               	/* #NOAPP */
 5467 1a5a 00C0      		rjmp .L347
 5468               	.LVL361:
 5469               	.L349:
 5470 1a5c 90E0      		ldi r25,lo8(0)
 5471               	.LVL362:
 5472               	.L347:
 5473               	.LBE1421:
 5474               	.LM677:
 5475 1a5e 1A82      		std Y+2,__zero_reg__
 5476               	.LM678:
 5477 1a60 1B82      		std Y+3,__zero_reg__
 5478               	.LM679:
 5479 1a62 8D81      		ldd r24,Y+5
 5480               	.LVL363:
 5481 1a64 8C83      		std Y+4,r24
 5482               	.LM680:
 5483 1a66 1D82      		std Y+5,__zero_reg__
 5484               	.LM681:
 5485 1a68 9E83      		std Y+6,r25
 5486               	.LM682:
 5487 1a6a 1F82      		std Y+7,__zero_reg__
 5488 1a6c 27E0      		ldi r18,lo8(7)
 5489 1a6e 30E0      		ldi r19,hi8(7)
 5490               	.LVL364:
 5491 1a70 00C0      		rjmp .L351
 5492               	.LVL365:
 5493               	.L536:
 5494               	.LBE1418:
 5495               	.LM683:
 5496 1a72 1A82      		std Y+2,__zero_reg__
 5497               	.LM684:
 5498 1a74 88E0      		ldi r24,lo8(8)
 5499 1a76 8B83      		std Y+3,r24
 5500               	.LM685:
 5501 1a78 81E4      		ldi r24,lo8(65)
 5502 1a7a 8C83      		std Y+4,r24
 5503               	.LM686:
 5504 1a7c 86E5      		ldi r24,lo8(86)
 5505 1a7e 8D83      		std Y+5,r24
 5506               	.LM687:
 5507 1a80 82E5      		ldi r24,lo8(82)
 5508 1a82 8E83      		std Y+6,r24
 5509               	.LM688:
 5510 1a84 89E4      		ldi r24,lo8(73)
 5511 1a86 8F83      		std Y+7,r24
 5512               	.LM689:
 5513 1a88 83E5      		ldi r24,lo8(83)
 5514 1a8a 8887      		std Y+8,r24
 5515               	.LM690:
 5516 1a8c 80E5      		ldi r24,lo8(80)
 5517 1a8e 8987      		std Y+9,r24
 5518               	.LM691:
 5519 1a90 8FE5      		ldi r24,lo8(95)
 5520 1a92 8A87      		std Y+10,r24
 5521               	.LM692:
 5522 1a94 82E3      		ldi r24,lo8(50)
 5523 1a96 8B87      		std Y+11,r24
 5524 1a98 2BE0      		ldi r18,lo8(11)
 5525 1a9a 30E0      		ldi r19,hi8(11)
 5526               	.LVL366:
 5527 1a9c 00C0      		rjmp .L351
 5528               	.LVL367:
 5529               	.L331:
 5530               	.LBB1422:
 5531               	.LM693:
 5532 1a9e 8A81      		ldd r24,Y+2
 5533 1aa0 8139      		cpi r24,lo8(-111)
 5534 1aa2 01F0      		breq .L354
 5535 1aa4 8239      		cpi r24,lo8(-110)
 5536 1aa6 01F0      		breq .L355
 5537 1aa8 8039      		cpi r24,lo8(-112)
 5538 1aaa 01F4      		brne .L516
 5539 1aac 8FE0      		ldi r24,lo8(15)
 5540               	.LVL368:
 5541 1aae 00C0      		rjmp .L356
 5542               	.LVL369:
 5543               	.L516:
 5544 1ab0 80E0      		ldi r24,lo8(0)
 5545               	.LVL370:
 5546 1ab2 00C0      		rjmp .L356
 5547               	.LVL371:
 5548               	.L354:
 5549 1ab4 82E0      		ldi r24,lo8(2)
 5550               	.LVL372:
 5551 1ab6 00C0      		rjmp .L356
 5552               	.LVL373:
 5553               	.L355:
 5554               	.LM694:
 5555 1ab8 8AE0      		ldi r24,lo8(10)
 5556               	.LVL374:
 5557               	.L356:
 5558               	.LM695:
 5559 1aba 1A82      		std Y+2,__zero_reg__
 5560               	.LM696:
 5561 1abc 8B83      		std Y+3,r24
 5562 1abe 00C0      		rjmp .L522
 5563               	.LVL375:
 5564               	.L333:
 5565               	.LM697:
 5566 1ac0 9924      		clr r9
 5567 1ac2 9394      		inc r9
 5568 1ac4 00C0      		rjmp .L525
 5569               	.L340:
 5570               	.LBE1422:
 5571               	.LBB1423:
 5572               	.LM698:
 5573 1ac6 8D81      		ldd r24,Y+5
 5574               	.LVL376:
 5575               	.LM699:
 5576 1ac8 8823      		tst r24
 5577 1aca 01F4      		brne .L357
 5578 1acc 8EE1      		ldi r24,lo8(30)
 5579               	.LVL377:
 5580 1ace 00C0      		rjmp .L362
 5581               	.LVL378:
 5582               	.L357:
 5583               	.LM700:
 5584 1ad0 8130      		cpi r24,lo8(1)
 5585 1ad2 01F0      		breq .L359
 5586 1ad4 83E0      		ldi r24,lo8(3)
 5587               	.LVL379:
 5588 1ad6 00C0      		rjmp .L362
 5589               	.LVL380:
 5590               	.L359:
 5591 1ad8 87E9      		ldi r24,lo8(-105)
 5592               	.LVL381:
 5593 1ada 00C0      		rjmp .L362
 5594               	.LVL382:
 5595               	.L339:
 5596               	.LBE1423:
 5597               	.LM701:
 5598 1adc 1A82      		std Y+2,__zero_reg__
 5599               	.LBB1424:
 5600               	.LM702:
 5601 1ade 89E0      		ldi r24,lo8(9)
 5602               	/* #APP */
 5603               	 ;  927 "stk500boot.c" 1
 5604 1ae0 E1E0      		ldi r30, 1
 5605 1ae2 F0E0      		ldi r31, 0
 5606 1ae4 8093 5700 		sts 87, r24
 5607 1ae8 8491      		lpm r24, Z
 5608               		
 5609               	 ;  0 "" 2
 5610               	.LVL383:
 5611               	/* #NOAPP */
 5612               	.L524:
 5613               	.LBE1424:
 5614 1aea 8B83      		std Y+3,r24
 5615               	.LM703:
 5616 1aec 1C82      		std Y+4,__zero_reg__
 5617 1aee 24E0      		ldi r18,lo8(4)
 5618 1af0 30E0      		ldi r19,hi8(4)
 5619               	.LVL384:
 5620 1af2 00C0      		rjmp .L351
 5621               	.LVL385:
 5622               	.L337:
 5623               	.LBB1425:
 5624               	.LM704:
 5625 1af4 8B81      		ldd r24,Y+3
 5626 1af6 8035      		cpi r24,lo8(80)
 5627 1af8 01F4      		brne .L360
 5628               	.LM705:
 5629 1afa 8C81      		ldd r24,Y+4
 5630 1afc 8830      		cpi r24,lo8(8)
 5631 1afe 01F4      		brne .L361
 5632               	.LBB1426:
 5633               	.LM706:
 5634 1b00 89E0      		ldi r24,lo8(9)
 5635               	/* #APP */
 5636               	 ;  938 "stk500boot.c" 1
 5637 1b02 E2E0      		ldi r30, 2
 5638 1b04 F0E0      		ldi r31, 0
 5639 1b06 8093 5700 		sts 87, r24
 5640 1b0a 8491      		lpm r24, Z
 5641               		
 5642               	 ;  0 "" 2
 5643               	.LVL386:
 5644               	/* #NOAPP */
 5645 1b0c 00C0      		rjmp .L362
 5646               	.LVL387:
 5647               	.L361:
 5648               	.LBE1426:
 5649               	.LBB1427:
 5650               	.LM707:
 5651 1b0e 89E0      		ldi r24,lo8(9)
 5652               	/* #APP */
 5653               	 ;  940 "stk500boot.c" 1
 5654 1b10 E0E0      		ldi r30, 0
 5655 1b12 F0E0      		ldi r31, 0
 5656 1b14 8093 5700 		sts 87, r24
 5657 1b18 8491      		lpm r24, Z
 5658               		
 5659               	 ;  0 "" 2
 5660               	.LVL388:
 5661               	/* #NOAPP */
 5662 1b1a 00C0      		rjmp .L362
 5663               	.LVL389:
 5664               	.L360:
 5665               	.LBE1427:
 5666               	.LBB1428:
 5667               	.LM708:
 5668 1b1c 89E0      		ldi r24,lo8(9)
 5669               	/* #APP */
 5670               	 ;  944 "stk500boot.c" 1
 5671 1b1e E3E0      		ldi r30, 3
 5672 1b20 F0E0      		ldi r31, 0
 5673 1b22 8093 5700 		sts 87, r24
 5674 1b26 8491      		lpm r24, Z
 5675               		
 5676               	 ;  0 "" 2
 5677               	.LVL390:
 5678               	/* #NOAPP */
 5679               	.L362:
 5680               	.LBE1428:
 5681               	.LM709:
 5682 1b28 1A82      		std Y+2,__zero_reg__
 5683 1b2a 00C0      		rjmp .L524
 5684               	.LVL391:
 5685               	.L338:
 5686               	.LBE1425:
 5687               	.LBB1429:
 5688               	.LM710:
 5689 1b2c 8D81      		ldd r24,Y+5
 5690               	.LBB1430:
 5691               	.LM711:
 5692 1b2e 836C      		ori r24,lo8(-61)
 5693 1b30 99E0      		ldi r25,lo8(9)
 5694               	/* #APP */
 5695               	 ;  959 "stk500boot.c" 1
 5696 1b32 E1E0      		ldi r30, 1
 5697 1b34 F0E0      		ldi r31, 0
 5698 1b36 082E      		mov r0, r24
 5699 1b38 9093 5700 		sts 87, r25
 5700 1b3c E895      		spm
 5701               		
 5702               	 ;  0 "" 2
 5703               	.LVL392:
 5704               	/* #NOAPP */
 5705               	.L363:
 5706               	.LBE1430:
 5707               	.LM712:
 5708 1b3e 07B6      		in __tmp_reg__,87-32
 5709 1b40 00FC      		sbrc __tmp_reg__,0
 5710 1b42 00C0      		rjmp .L363
 5711               	.LM713:
 5712 1b44 1A82      		std Y+2,__zero_reg__
 5713               	.LM714:
 5714 1b46 1B82      		std Y+3,__zero_reg__
 5715               	.LVL393:
 5716               	.L522:
 5717 1b48 23E0      		ldi r18,lo8(3)
 5718 1b4a 30E0      		ldi r19,hi8(3)
 5719               	.LVL394:
 5720 1b4c 00C0      		rjmp .L351
 5721               	.LVL395:
 5722               	.L334:
 5723               	.LBE1429:
 5724               	.LM715:
 5725 1b4e 80EC      		ldi r24,lo8(-64)
 5726 1b50 8A83      		std Y+2,r24
 5727 1b52 CE5C      		subi r28,lo8(-306)
 5728 1b54 DE4F      		sbci r29,hi8(-306)
 5729 1b56 1882      		st Y,__zero_reg__
 5730 1b58 1982      		std Y+1,__zero_reg__
 5731 1b5a 1A82      		std Y+2,__zero_reg__
 5732 1b5c 1B82      		std Y+3,__zero_reg__
 5733 1b5e C253      		subi r28,lo8(306)
 5734 1b60 D140      		sbci r29,hi8(306)
 5735               	.LVL396:
 5736 1b62 00C0      		rjmp .L523
 5737               	.L332:
 5738               	.LM716:
 5739 1b64 8A81      		ldd r24,Y+2
 5740 1b66 90E0      		ldi r25,lo8(0)
 5741 1b68 A0E0      		ldi r26,lo8(0)
 5742 1b6a B0E0      		ldi r27,hi8(0)
 5743               	.LVL397:
 5744 1b6c 182F      		mov r17,r24
 5745 1b6e 0027      		clr r16
 5746 1b70 FF24      		clr r15
 5747 1b72 EE24      		clr r14
 5748               	.LVL398:
 5749 1b74 8B81      		ldd r24,Y+3
 5750 1b76 90E0      		ldi r25,lo8(0)
 5751 1b78 A0E0      		ldi r26,lo8(0)
 5752 1b7a B0E0      		ldi r27,hi8(0)
 5753 1b7c DC01      		movw r26,r24
 5754 1b7e 9927      		clr r25
 5755 1b80 8827      		clr r24
 5756 1b82 E82A      		or r14,r24
 5757 1b84 F92A      		or r15,r25
 5758 1b86 0A2B      		or r16,r26
 5759 1b88 1B2B      		or r17,r27
 5760 1b8a 8D81      		ldd r24,Y+5
 5761 1b8c 90E0      		ldi r25,lo8(0)
 5762 1b8e A0E0      		ldi r26,lo8(0)
 5763 1b90 B0E0      		ldi r27,hi8(0)
 5764 1b92 E82A      		or r14,r24
 5765 1b94 F92A      		or r15,r25
 5766 1b96 0A2B      		or r16,r26
 5767 1b98 1B2B      		or r17,r27
 5768 1b9a 8C81      		ldd r24,Y+4
 5769 1b9c 90E0      		ldi r25,lo8(0)
 5770 1b9e A0E0      		ldi r26,lo8(0)
 5771 1ba0 B0E0      		ldi r27,hi8(0)
 5772 1ba2 BA2F      		mov r27,r26
 5773 1ba4 A92F      		mov r26,r25
 5774 1ba6 982F      		mov r25,r24
 5775 1ba8 8827      		clr r24
 5776 1baa E82A      		or r14,r24
 5777 1bac F92A      		or r15,r25
 5778 1bae 0A2B      		or r16,r26
 5779 1bb0 1B2B      		or r17,r27
 5780 1bb2 EE0C      		lsl r14
 5781 1bb4 FF1C      		rol r15
 5782 1bb6 001F      		rol r16
 5783 1bb8 111F      		rol r17
 5784               	.LVL399:
 5785 1bba C05E      		subi r28,lo8(-288)
 5786 1bbc DE4F      		sbci r29,hi8(-288)
 5787 1bbe E882      		st Y,r14
 5788 1bc0 F982      		std Y+1,r15
 5789 1bc2 0A83      		std Y+2,r16
 5790 1bc4 1B83      		std Y+3,r17
 5791 1bc6 C052      		subi r28,lo8(288)
 5792 1bc8 D140      		sbci r29,hi8(288)
 5793               	.LVL400:
 5794               	.L525:
 5795               	.LM717:
 5796 1bca 1A82      		std Y+2,__zero_reg__
 5797 1bcc 00C0      		rjmp .L523
 5798               	.LVL401:
 5799               	.L335:
 5800               	.LBB1431:
 5801               	.LM718:
 5802 1bce FA80      		ldd r15,Y+2
 5803 1bd0 C95C      		subi r28,lo8(-311)
 5804 1bd2 DE4F      		sbci r29,hi8(-311)
 5805 1bd4 F882      		st Y,r15
 5806 1bd6 C753      		subi r28,lo8(311)
 5807 1bd8 D140      		sbci r29,hi8(311)
 5808 1bda CA5C      		subi r28,lo8(-310)
 5809 1bdc DE4F      		sbci r29,hi8(-310)
 5810 1bde 1882      		st Y,__zero_reg__
 5811 1be0 C653      		subi r28,lo8(310)
 5812 1be2 D140      		sbci r29,hi8(310)
 5813 1be4 8B81      		ldd r24,Y+3
 5814 1be6 082F      		mov r16,r24
 5815               	.LVL402:
 5816 1be8 10E0      		ldi r17,lo8(0)
 5817 1bea CA5C      		subi r28,lo8(-310)
 5818 1bec DE4F      		sbci r29,hi8(-310)
 5819 1bee 2881      		ld r18,Y
 5820 1bf0 3981      		ldd r19,Y+1
 5821 1bf2 C653      		subi r28,lo8(310)
 5822 1bf4 D140      		sbci r29,hi8(310)
 5823               	.LVL403:
 5824 1bf6 022B      		or r16,r18
 5825 1bf8 132B      		or r17,r19
 5826               	.LVL404:
 5827               	.LM719:
 5828 1bfa 9331      		cpi r25,lo8(19)
 5829 1bfc 01F0      		breq .+2
 5830 1bfe 00C0      		rjmp .L364
 5831               	.LM720:
 5832 1c00 CE5C      		subi r28,lo8(-306)
 5833 1c02 DE4F      		sbci r29,hi8(-306)
 5834 1c04 8881      		ld r24,Y
 5835 1c06 9981      		ldd r25,Y+1
 5836 1c08 AA81      		ldd r26,Y+2
 5837 1c0a BB81      		ldd r27,Y+3
 5838 1c0c C253      		subi r28,lo8(306)
 5839 1c0e D140      		sbci r29,hi8(306)
 5840 1c10 8050      		subi r24,lo8(114688)
 5841 1c12 904C      		sbci r25,hi8(114688)
 5842 1c14 A140      		sbci r26,hlo8(114688)
 5843 1c16 B040      		sbci r27,hhi8(114688)
 5844               	.LVL405:
 5845 1c18 00F4      		brsh .L365
 5846               	.LM721:
 5847 1c1a 83E0      		ldi r24,lo8(3)
 5848 1c1c CE5C      		subi r28,lo8(-306)
 5849 1c1e DE4F      		sbci r29,hi8(-306)
 5850 1c20 2881      		ld r18,Y
 5851 1c22 3981      		ldd r19,Y+1
 5852 1c24 4A81      		ldd r20,Y+2
 5853 1c26 5B81      		ldd r21,Y+3
 5854 1c28 C253      		subi r28,lo8(306)
 5855 1c2a D140      		sbci r29,hi8(306)
 5856               	/* #APP */
 5857               	 ;  1000 "stk500boot.c" 1
 5858 1c2c F901      		movw r30, r18
 5859 1c2e 4093 5B00 		sts  91, r20
 5860 1c32 8093 5700 		sts 87, r24
 5861 1c36 E895      		spm
 5862               		
 5863               	 ;  0 "" 2
 5864               	/* #NOAPP */
 5865               	.L366:
 5866               	.LM722:
 5867 1c38 07B6      		in __tmp_reg__,87-32
 5868 1c3a 00FC      		sbrc __tmp_reg__,0
 5869 1c3c 00C0      		rjmp .L366
 5870               	.LM723:
 5871 1c3e CE5C      		subi r28,lo8(-306)
 5872 1c40 DE4F      		sbci r29,hi8(-306)
 5873 1c42 8881      		ld r24,Y
 5874 1c44 9981      		ldd r25,Y+1
 5875 1c46 AA81      		ldd r26,Y+2
 5876 1c48 BB81      		ldd r27,Y+3
 5877 1c4a C253      		subi r28,lo8(306)
 5878 1c4c D140      		sbci r29,hi8(306)
 5879 1c4e 8050      		subi r24,lo8(-(256))
 5880 1c50 9F4F      		sbci r25,hi8(-(256))
 5881 1c52 AF4F      		sbci r26,hlo8(-(256))
 5882 1c54 BF4F      		sbci r27,hhi8(-(256))
 5883 1c56 CE5C      		subi r28,lo8(-306)
 5884 1c58 DE4F      		sbci r29,hi8(-306)
 5885 1c5a 8883      		st Y,r24
 5886 1c5c 9983      		std Y+1,r25
 5887 1c5e AA83      		std Y+2,r26
 5888 1c60 BB83      		std Y+3,r27
 5889 1c62 C253      		subi r28,lo8(306)
 5890 1c64 D140      		sbci r29,hi8(306)
 5891               	.LVL406:
 5892               	.L365:
 5893 1c66 C05E      		subi r28,lo8(-288)
 5894 1c68 DE4F      		sbci r29,hi8(-288)
 5895 1c6a 4881      		ld r20,Y
 5896 1c6c 5981      		ldd r21,Y+1
 5897 1c6e 6A81      		ldd r22,Y+2
 5898 1c70 7B81      		ldd r23,Y+3
 5899 1c72 C052      		subi r28,lo8(288)
 5900 1c74 D140      		sbci r29,hi8(288)
 5901 1c76 DE01      		movw r26,r28
 5902               	.LVL407:
 5903 1c78 1B96      		adiw r26,11
 5904               	.LM724:
 5905 1c7a 31E0      		ldi r19,lo8(1)
 5906               	.LVL408:
 5907               	.L367:
 5908               	.LM725:
 5909 1c7c 8C91      		ld r24,X
 5910               	.LVL409:
 5911               	.LM726:
 5912 1c7e 1196      		adiw r26,1
 5913 1c80 2C91      		ld r18,X
 5914 1c82 1197      		sbiw r26,1
 5915               	.LM727:
 5916 1c84 1296      		adiw r26,2
 5917               	.LM728:
 5918 1c86 C75C      		subi r28,lo8(-313)
 5919 1c88 DE4F      		sbci r29,hi8(-313)
 5920 1c8a 2883      		st Y,r18
 5921 1c8c C953      		subi r28,lo8(313)
 5922 1c8e D140      		sbci r29,hi8(313)
 5923 1c90 C85C      		subi r28,lo8(-312)
 5924 1c92 DE4F      		sbci r29,hi8(-312)
 5925 1c94 1882      		st Y,__zero_reg__
 5926 1c96 C853      		subi r28,lo8(312)
 5927 1c98 D140      		sbci r29,hi8(312)
 5928 1c9a 90E0      		ldi r25,lo8(0)
 5929 1c9c C85C      		subi r28,lo8(-312)
 5930 1c9e DE4F      		sbci r29,hi8(-312)
 5931 1ca0 E881      		ld r30,Y
 5932 1ca2 F981      		ldd r31,Y+1
 5933 1ca4 C853      		subi r28,lo8(312)
 5934 1ca6 D140      		sbci r29,hi8(312)
 5935 1ca8 8E2B      		or r24,r30
 5936 1caa 9F2B      		or r25,r31
 5937               	.LVL410:
 5938               	/* #APP */
 5939               	 ;  1011 "stk500boot.c" 1
 5940 1cac 0C01      		movw  r0, r24
 5941 1cae FA01      		movw r30, r20
 5942 1cb0 6093 5B00 		sts 91, r22
 5943 1cb4 3093 5700 		sts 87, r19
 5944 1cb8 E895      		spm
 5945 1cba 1124      		clr  r1
 5946               		
 5947               	 ;  0 "" 2
 5948               	.LM729:
 5949               	/* #NOAPP */
 5950 1cbc 4E5F      		subi r20,lo8(-(2))
 5951 1cbe 5F4F      		sbci r21,hi8(-(2))
 5952 1cc0 6F4F      		sbci r22,hlo8(-(2))
 5953 1cc2 7F4F      		sbci r23,hhi8(-(2))
 5954               	.LM730:
 5955 1cc4 0250      		subi r16,lo8(-(-2))
 5956 1cc6 1040      		sbci r17,hi8(-(-2))
 5957               	.LM731:
 5958 1cc8 01F4      		brne .L367
 5959               	.LM732:
 5960 1cca 85E0      		ldi r24,lo8(5)
 5961               	.LVL411:
 5962 1ccc C05E      		subi r28,lo8(-288)
 5963 1cce DE4F      		sbci r29,hi8(-288)
 5964 1cd0 E880      		ld r14,Y
 5965 1cd2 F980      		ldd r15,Y+1
 5966 1cd4 0A81      		ldd r16,Y+2
 5967 1cd6 1B81      		ldd r17,Y+3
 5968 1cd8 C052      		subi r28,lo8(288)
 5969 1cda D140      		sbci r29,hi8(288)
 5970               	.LVL412:
 5971               	/* #APP */
 5972               	 ;  1017 "stk500boot.c" 1
 5973 1cdc F701      		movw r30, r14
 5974 1cde 0093 5B00 		sts 91, r16
 5975 1ce2 8093 5700 		sts 87, r24
 5976 1ce6 E895      		spm
 5977               		
 5978               	 ;  0 "" 2
 5979               	.LVL413:
 5980               	/* #NOAPP */
 5981               	.L368:
 5982               	.LM733:
 5983 1ce8 07B6      		in __tmp_reg__,87-32
 5984 1cea 00FC      		sbrc __tmp_reg__,0
 5985 1cec 00C0      		rjmp .L368
 5986               	.LM734:
 5987 1cee 81E1      		ldi r24,lo8(17)
 5988               	/* #APP */
 5989               	 ;  1019 "stk500boot.c" 1
 5990 1cf0 8093 5700 		sts 87, r24
 5991 1cf4 E895      		spm
 5992               		
 5993               	 ;  0 "" 2
 5994               	/* #NOAPP */
 5995 1cf6 00C0      		rjmp .L369
 5996               	.LVL414:
 5997               	.L364:
 5998               	.LBB1432:
 5999               	.LM735:
 6000 1cf8 C05E      		subi r28,lo8(-288)
 6001 1cfa DE4F      		sbci r29,hi8(-288)
 6002 1cfc 8881      		ld r24,Y
 6003 1cfe 9981      		ldd r25,Y+1
 6004 1d00 AA81      		ldd r26,Y+2
 6005 1d02 BB81      		ldd r27,Y+3
 6006 1d04 C052      		subi r28,lo8(288)
 6007 1d06 D140      		sbci r29,hi8(288)
 6008 1d08 B695      		lsr r27
 6009 1d0a A795      		ror r26
 6010 1d0c 9795      		ror r25
 6011 1d0e 8795      		ror r24
 6012 1d10 9801      		movw r18,r16
 6013 1d12 FE01      		movw r30,r28
 6014               	.LVL415:
 6015 1d14 3B96      		adiw r30,11
 6016 1d16 00C0      		rjmp .L370
 6017               	.LVL416:
 6018               	.L372:
 6019               	.LM736:
 6020 1d18 4081      		ld r20,Z
 6021               	.L371:
 6022               	.LBB1433:
 6023               	.LBB1434:
 6024               	.LM737:
 6025 1d1a F999      		sbic 63-32,1
 6026 1d1c 00C0      		rjmp .L371
 6027               	.LBE1434:
 6028               	.LBE1433:
 6029               	.LM738:
 6030 1d1e 3196      		adiw r30,1
 6031               	.LBB1436:
 6032               	.LBB1435:
 6033               	.LM739:
 6034 1d20 1FBA      		out 63-32,__zero_reg__
 6035               	.LM740:
 6036 1d22 92BD      		out (65)+1-32,r25
 6037 1d24 81BD      		out 65-32,r24
 6038               	.LM741:
 6039 1d26 40BD      		out 64-32,r20
 6040               	.LM742:
 6041               	/* #APP */
 6042               	 ;  324 "/Applications/Arduino.app/Contents/Resources/Java/hardware/tools/avr/bin/../lib/gcc/avr/4.
 6043               		/* START EEPROM WRITE CRITICAL SECTION */
 6044 1d28 0FB6      		in	r0, 63		
 6045 1d2a F894      		cli				
 6046 1d2c FA9A      		sbi	31, 2	
 6047 1d2e F99A      		sbi	31, 1	
 6048 1d30 0FBE      		out	63, r0		
 6049               		/* END EEPROM WRITE CRITICAL SECTION */
 6050               	 ;  0 "" 2
 6051               	/* #NOAPP */
 6052               	.LBE1435:
 6053               	.LBE1436:
 6054               	.LM743:
 6055 1d32 0196      		adiw r24,1
 6056               	.LM744:
 6057 1d34 2150      		subi r18,lo8(-(-1))
 6058 1d36 3040      		sbci r19,hi8(-(-1))
 6059               	.LVL417:
 6060               	.L370:
 6061               	.LM745:
 6062 1d38 2115      		cp r18,__zero_reg__
 6063 1d3a 3105      		cpc r19,__zero_reg__
 6064 1d3c 01F4      		brne .L372
 6065 1d3e A801      		movw r20,r16
 6066               	.LVL418:
 6067 1d40 60E0      		ldi r22,lo8(0)
 6068 1d42 70E0      		ldi r23,hi8(0)
 6069               	.LVL419:
 6070 1d44 440F      		lsl r20
 6071 1d46 551F      		rol r21
 6072 1d48 661F      		rol r22
 6073 1d4a 771F      		rol r23
 6074               	.LVL420:
 6075 1d4c C05E      		subi r28,lo8(-288)
 6076 1d4e DE4F      		sbci r29,hi8(-288)
 6077 1d50 0881      		ld r16,Y
 6078 1d52 1981      		ldd r17,Y+1
 6079 1d54 2A81      		ldd r18,Y+2
 6080 1d56 3B81      		ldd r19,Y+3
 6081 1d58 C052      		subi r28,lo8(288)
 6082 1d5a D140      		sbci r29,hi8(288)
 6083 1d5c 400F      		add r20,r16
 6084 1d5e 511F      		adc r21,r17
 6085 1d60 621F      		adc r22,r18
 6086 1d62 731F      		adc r23,r19
 6087               	.LVL421:
 6088               	.L369:
 6089               	.LBE1432:
 6090               	.LM746:
 6091 1d64 1A82      		std Y+2,__zero_reg__
 6092 1d66 C05E      		subi r28,lo8(-288)
 6093 1d68 DE4F      		sbci r29,hi8(-288)
 6094 1d6a 4883      		st Y,r20
 6095 1d6c 5983      		std Y+1,r21
 6096 1d6e 6A83      		std Y+2,r22
 6097 1d70 7B83      		std Y+3,r23
 6098 1d72 C052      		subi r28,lo8(288)
 6099 1d74 D140      		sbci r29,hi8(288)
 6100 1d76 00C0      		rjmp .L523
 6101               	.LVL422:
 6102               	.L336:
 6103               	.LBE1431:
 6104               	.LBB1437:
 6105               	.LM747:
 6106 1d78 1A81      		ldd r17,Y+2
 6107               	.LVL423:
 6108 1d7a C55C      		subi r28,lo8(-315)
 6109 1d7c DE4F      		sbci r29,hi8(-315)
 6110 1d7e 1883      		st Y,r17
 6111 1d80 CB53      		subi r28,lo8(315)
 6112 1d82 D140      		sbci r29,hi8(315)
 6113 1d84 C65C      		subi r28,lo8(-314)
 6114 1d86 DE4F      		sbci r29,hi8(-314)
 6115 1d88 1882      		st Y,__zero_reg__
 6116 1d8a CA53      		subi r28,lo8(314)
 6117 1d8c D140      		sbci r29,hi8(314)
 6118 1d8e 8B81      		ldd r24,Y+3
 6119 1d90 C82E      		mov r12,r24
 6120               	.LVL424:
 6121 1d92 DD24      		clr r13
 6122 1d94 C65C      		subi r28,lo8(-314)
 6123 1d96 DE4F      		sbci r29,hi8(-314)
 6124 1d98 2881      		ld r18,Y
 6125 1d9a 3981      		ldd r19,Y+1
 6126 1d9c CA53      		subi r28,lo8(314)
 6127 1d9e D140      		sbci r29,hi8(314)
 6128               	.LVL425:
 6129 1da0 C22A      		or r12,r18
 6130 1da2 D32A      		or r13,r19
 6131               	.LVL426:
 6132               	.LM748:
 6133 1da4 1A82      		std Y+2,__zero_reg__
 6134               	.LM749:
 6135 1da6 8981      		ldd r24,Y+1
 6136 1da8 BE01      		movw r22,r28
 6137               	.LVL427:
 6138 1daa 6D5F      		subi r22,lo8(-(3))
 6139 1dac 7F4F      		sbci r23,hi8(-(3))
 6140 1dae 8431      		cpi r24,lo8(20)
 6141 1db0 01F4      		brne .L373
 6142 1db2 9601      		movw r18,r12
 6143               	.LVL428:
 6144               	.L374:
 6145               	.LBB1438:
 6146               	.LBB1439:
 6147               	.LM750:
 6148 1db4 C05E      		subi r28,lo8(-288)
 6149 1db6 DE4F      		sbci r29,hi8(-288)
 6150 1db8 E880      		ld r14,Y
 6151 1dba F980      		ldd r15,Y+1
 6152 1dbc 0A81      		ldd r16,Y+2
 6153 1dbe 1B81      		ldd r17,Y+3
 6154 1dc0 C052      		subi r28,lo8(288)
 6155 1dc2 D140      		sbci r29,hi8(288)
 6156               	.LVL429:
 6157               	/* #APP */
 6158               	 ;  1054 "stk500boot.c" 1
 6159 1dc4 0BBF      		out 59, r16
 6160 1dc6 F701      		movw r30, r14
 6161 1dc8 8791      		elpm r24, Z+
 6162 1dca 9691      		elpm r25, Z
 6163               		
 6164               	 ;  0 "" 2
 6165               	.LVL430:
 6166               	/* #NOAPP */
 6167               	.LBE1439:
 6168               	.LM751:
 6169 1dcc DB01      		movw r26,r22
 6170               	.LVL431:
 6171 1dce 8C93      		st X,r24
 6172               	.LM752:
 6173 1dd0 1196      		adiw r26,1
 6174 1dd2 9C93      		st X,r25
 6175               	.LM753:
 6176 1dd4 6E5F      		subi r22,lo8(-(2))
 6177 1dd6 7F4F      		sbci r23,hi8(-(2))
 6178               	.LVL432:
 6179               	.LM754:
 6180 1dd8 D801      		movw r26,r16
 6181 1dda C701      		movw r24,r14
 6182               	.LVL433:
 6183 1ddc 0296      		adiw r24,2
 6184 1dde A11D      		adc r26,__zero_reg__
 6185 1de0 B11D      		adc r27,__zero_reg__
 6186 1de2 C05E      		subi r28,lo8(-288)
 6187 1de4 DE4F      		sbci r29,hi8(-288)
 6188 1de6 8883      		st Y,r24
 6189 1de8 9983      		std Y+1,r25
 6190 1dea AA83      		std Y+2,r26
 6191 1dec BB83      		std Y+3,r27
 6192 1dee C052      		subi r28,lo8(288)
 6193 1df0 D140      		sbci r29,hi8(288)
 6194               	.LVL434:
 6195               	.LM755:
 6196 1df2 2250      		subi r18,lo8(-(-2))
 6197 1df4 3040      		sbci r19,hi8(-(-2))
 6198               	.LM756:
 6199 1df6 01F4      		brne .L374
 6200 1df8 00C0      		rjmp .L375
 6201               	.LVL435:
 6202               	.L373:
 6203 1dfa C05E      		subi r28,lo8(-288)
 6204 1dfc DE4F      		sbci r29,hi8(-288)
 6205 1dfe 2881      		ld r18,Y
 6206 1e00 3981      		ldd r19,Y+1
 6207 1e02 4A81      		ldd r20,Y+2
 6208 1e04 5B81      		ldd r21,Y+3
 6209 1e06 C052      		subi r28,lo8(288)
 6210 1e08 D140      		sbci r29,hi8(288)
 6211               	.LBE1438:
 6212               	.LM757:
 6213 1e0a 0894      		sec
 6214 1e0c C108      		sbc r12,__zero_reg__
 6215 1e0e D108      		sbc r13,__zero_reg__
 6216               	.LM758:
 6217 1e10 7601      		movw r14,r12
 6218               	.LVL436:
 6219 1e12 00E0      		ldi r16,lo8(0)
 6220 1e14 10E0      		ldi r17,hi8(0)
 6221               	.LVL437:
 6222 1e16 0894      		sec
 6223 1e18 C11C      		adc r12,__zero_reg__
 6224 1e1a D11C      		adc r13,__zero_reg__
 6225 1e1c 0894      		sec
 6226 1e1e E11C      		adc r14,__zero_reg__
 6227 1e20 F11C      		adc r15,__zero_reg__
 6228 1e22 011D      		adc r16,__zero_reg__
 6229 1e24 111D      		adc r17,__zero_reg__
 6230 1e26 E20E      		add r14,r18
 6231 1e28 F31E      		adc r15,r19
 6232 1e2a 041F      		adc r16,r20
 6233 1e2c 151F      		adc r17,r21
 6234               	.LVL438:
 6235               	.L376:
 6236               	.LM759:
 6237 1e2e 21BD      		out 65-32,r18
 6238               	.LM760:
 6239 1e30 BB27      		clr r27
 6240 1e32 A52F      		mov r26,r21
 6241 1e34 942F      		mov r25,r20
 6242 1e36 832F      		mov r24,r19
 6243               	.LVL439:
 6244 1e38 82BD      		out 66-32,r24
 6245               	.LM761:
 6246 1e3a 2F5F      		subi r18,lo8(-(1))
 6247 1e3c 3F4F      		sbci r19,hi8(-(1))
 6248 1e3e 4F4F      		sbci r20,hlo8(-(1))
 6249 1e40 5F4F      		sbci r21,hhi8(-(1))
 6250               	.LM762:
 6251 1e42 F89A      		sbi 63-32,0
 6252               	.LM763:
 6253 1e44 80B5      		in r24,64-32
 6254 1e46 DB01      		movw r26,r22
 6255               	.LVL440:
 6256 1e48 8D93      		st X+,r24
 6257 1e4a BD01      		movw r22,r26
 6258               	.LVL441:
 6259               	.LM764:
 6260 1e4c 2E15      		cp r18,r14
 6261 1e4e 3F05      		cpc r19,r15
 6262 1e50 4007      		cpc r20,r16
 6263 1e52 5107      		cpc r21,r17
 6264 1e54 01F4      		brne .L376
 6265 1e56 C05E      		subi r28,lo8(-288)
 6266 1e58 DE4F      		sbci r29,hi8(-288)
 6267 1e5a 2883      		st Y,r18
 6268 1e5c 3983      		std Y+1,r19
 6269 1e5e 4A83      		std Y+2,r20
 6270 1e60 5B83      		std Y+3,r21
 6271 1e62 C052      		subi r28,lo8(288)
 6272 1e64 D140      		sbci r29,hi8(288)
 6273               	.LVL442:
 6274               	.L375:
 6275               	.LM765:
 6276 1e66 9601      		movw r18,r12
 6277               	.LVL443:
 6278 1e68 2D5F      		subi r18,lo8(-(3))
 6279 1e6a 3F4F      		sbci r19,hi8(-(3))
 6280               	.LM766:
 6281 1e6c FB01      		movw r30,r22
 6282 1e6e 1082      		st Z,__zero_reg__
 6283 1e70 00C0      		rjmp .L351
 6284               	.LVL444:
 6285               	.L328:
 6286               	.LBE1437:
 6287               	.LM767:
 6288 1e72 80EC      		ldi r24,lo8(-64)
 6289 1e74 8A83      		std Y+2,r24
 6290               	.LVL445:
 6291               	.L523:
 6292 1e76 22E0      		ldi r18,lo8(2)
 6293 1e78 30E0      		ldi r19,hi8(2)
 6294               	.LVL446:
 6295               	.L351:
 6296               	.LBB1440:
 6297               	.LBB1441:
 6298               	.LM768:
 6299 1e7a 8BE1      		ldi r24,lo8(27)
 6300               	.LVL447:
 6301 1e7c 8093 C600 		sts 198,r24
 6302               	.L377:
 6303               	.LM769:
 6304 1e80 8091 C000 		lds r24,192
 6305 1e84 86FF      		sbrs r24,6
 6306 1e86 00C0      		rjmp .L377
 6307               	.LM770:
 6308 1e88 8091 C000 		lds r24,192
 6309 1e8c 8064      		ori r24,lo8(64)
 6310 1e8e 8093 C000 		sts 192,r24
 6311               	.LBE1441:
 6312               	.LBE1440:
 6313               	.LBB1442:
 6314               	.LBB1443:
 6315               	.LM771:
 6316 1e92 C15D      		subi r28,lo8(-303)
 6317 1e94 DE4F      		sbci r29,hi8(-303)
 6318 1e96 F881      		ld r31,Y
 6319 1e98 CF52      		subi r28,lo8(303)
 6320 1e9a D140      		sbci r29,hi8(303)
 6321 1e9c F093 C600 		sts 198,r31
 6322               	.L378:
 6323               	.LM772:
 6324 1ea0 8091 C000 		lds r24,192
 6325 1ea4 86FF      		sbrs r24,6
 6326 1ea6 00C0      		rjmp .L378
 6327               	.LM773:
 6328 1ea8 8091 C000 		lds r24,192
 6329 1eac 8064      		ori r24,lo8(64)
 6330 1eae 8093 C000 		sts 192,r24
 6331               	.LBE1443:
 6332               	.LBE1442:
 6333               	.LM774:
 6334 1eb2 432F      		mov r20,r19
 6335               	.LVL448:
 6336               	.LBB1444:
 6337               	.LBB1445:
 6338               	.LM775:
 6339 1eb4 3093 C600 		sts 198,r19
 6340               	.L379:
 6341               	.LM776:
 6342 1eb8 8091 C000 		lds r24,192
 6343 1ebc 86FF      		sbrs r24,6
 6344 1ebe 00C0      		rjmp .L379
 6345               	.LM777:
 6346 1ec0 8091 C000 		lds r24,192
 6347 1ec4 8064      		ori r24,lo8(64)
 6348 1ec6 8093 C000 		sts 192,r24
 6349               	.LBE1445:
 6350               	.LBE1444:
 6351               	.LM778:
 6352 1eca 922F      		mov r25,r18
 6353               	.LVL449:
 6354               	.LBB1446:
 6355               	.LBB1447:
 6356               	.LM779:
 6357 1ecc 2093 C600 		sts 198,r18
 6358               	.L380:
 6359               	.LM780:
 6360 1ed0 8091 C000 		lds r24,192
 6361 1ed4 86FF      		sbrs r24,6
 6362 1ed6 00C0      		rjmp .L380
 6363               	.LM781:
 6364 1ed8 8091 C000 		lds r24,192
 6365 1edc 8064      		ori r24,lo8(64)
 6366 1ede 8093 C000 		sts 192,r24
 6367               	.LBE1447:
 6368               	.LBE1446:
 6369               	.LBB1448:
 6370               	.LBB1449:
 6371               	.LM782:
 6372 1ee2 8EE0      		ldi r24,lo8(14)
 6373 1ee4 8093 C600 		sts 198,r24
 6374               	.L381:
 6375               	.LM783:
 6376 1ee8 8091 C000 		lds r24,192
 6377 1eec 86FF      		sbrs r24,6
 6378 1eee 00C0      		rjmp .L381
 6379               	.LM784:
 6380 1ef0 8091 C000 		lds r24,192
 6381 1ef4 8064      		ori r24,lo8(64)
 6382 1ef6 8093 C000 		sts 192,r24
 6383               	.LBE1449:
 6384               	.LBE1448:
 6385               	.LM785:
 6386 1efa 65E1      		ldi r22,lo8(21)
 6387               	.LVL450:
 6388 1efc C15D      		subi r28,lo8(-303)
 6389 1efe DE4F      		sbci r29,hi8(-303)
 6390 1f00 E880      		ld r14,Y
 6391 1f02 CF52      		subi r28,lo8(303)
 6392 1f04 D140      		sbci r29,hi8(303)
 6393               	.LVL451:
 6394 1f06 6E25      		eor r22,r14
 6395               	.LM786:
 6396 1f08 6927      		eor r22,r25
 6397               	.LM787:
 6398 1f0a 6427      		eor r22,r20
 6399 1f0c FE01      		movw r30,r28
 6400               	.LVL452:
 6401 1f0e 3196      		adiw r30,1
 6402 1f10 00C0      		rjmp .L382
 6403               	.L384:
 6404               	.LM788:
 6405 1f12 9081      		ld r25,Z
 6406               	.LBB1450:
 6407               	.LBB1451:
 6408               	.LM789:
 6409 1f14 9093 C600 		sts 198,r25
 6410               	.L383:
 6411               	.LM790:
 6412 1f18 8091 C000 		lds r24,192
 6413 1f1c 86FF      		sbrs r24,6
 6414 1f1e 00C0      		rjmp .L383
 6415               	.LBE1451:
 6416               	.LBE1450:
 6417               	.LM791:
 6418 1f20 3196      		adiw r30,1
 6419               	.LBB1453:
 6420               	.LBB1452:
 6421               	.LM792:
 6422 1f22 8091 C000 		lds r24,192
 6423 1f26 8064      		ori r24,lo8(64)
 6424 1f28 8093 C000 		sts 192,r24
 6425               	.LBE1452:
 6426               	.LBE1453:
 6427               	.LM793:
 6428 1f2c 6927      		eor r22,r25
 6429               	.LM794:
 6430 1f2e 2150      		subi r18,lo8(-(-1))
 6431 1f30 3040      		sbci r19,hi8(-(-1))
 6432               	.LVL453:
 6433               	.L382:
 6434               	.LM795:
 6435 1f32 2115      		cp r18,__zero_reg__
 6436 1f34 3105      		cpc r19,__zero_reg__
 6437 1f36 01F4      		brne .L384
 6438               	.LBB1454:
 6439               	.LBB1455:
 6440               	.LM796:
 6441 1f38 6093 C600 		sts 198,r22
 6442               	.L385:
 6443               	.LM797:
 6444 1f3c 8091 C000 		lds r24,192
 6445 1f40 86FF      		sbrs r24,6
 6446 1f42 00C0      		rjmp .L385
 6447               	.LM798:
 6448 1f44 8091 C000 		lds r24,192
 6449 1f48 8064      		ori r24,lo8(64)
 6450 1f4a 8093 C000 		sts 192,r24
 6451               	.LBE1455:
 6452               	.LBE1454:
 6453               	.LM799:
 6454 1f4e 85B1      		in r24,37-32
 6455 1f50 8058      		subi r24,lo8(-(-128))
 6456 1f52 85B9      		out 37-32,r24
 6457               	.LM800:
 6458 1f54 9920      		tst r9
 6459 1f56 01F4      		brne .L109
 6460               	.LM801:
 6461 1f58 C15D      		subi r28,lo8(-303)
 6462 1f5a DE4F      		sbci r29,hi8(-303)
 6463 1f5c 0881      		ld r16,Y
 6464 1f5e CF52      		subi r28,lo8(303)
 6465 1f60 D140      		sbci r29,hi8(303)
 6466               	.LVL454:
 6467 1f62 0F5F      		subi r16,lo8(-(1))
 6468 1f64 C15D      		subi r28,lo8(-303)
 6469 1f66 DE4F      		sbci r29,hi8(-303)
 6470 1f68 0883      		st Y,r16
 6471 1f6a CF52      		subi r28,lo8(303)
 6472 1f6c D140      		sbci r29,hi8(303)
 6473               	.LVL455:
 6474               	.L110:
 6475 1f6e 90E0      		ldi r25,lo8(0)
 6476               	.LVL456:
 6477 1f70 A0E0      		ldi r26,lo8(0)
 6478 1f72 B0E0      		ldi r27,hi8(0)
 6479               	.LVL457:
 6480               	.LM802:
 6481 1f74 8E01      		movw r16,r28
 6482 1f76 0F5F      		subi r16,lo8(-(1))
 6483 1f78 1F4F      		sbci r17,hi8(-(1))
 6484 1f7a 0C94 0000 		jmp .L513
 6485               	.LVL458:
 6486               	.L109:
 6487               	.LM803:
 6488 1f7e 2798      		cbi 36-32,7
 6489               	.LM804:
 6490 1f80 2F98      		cbi 37-32,7
 6491 1f82 80E0      		ldi r24,lo8(0)
 6492 1f84 90E0      		ldi r25,hi8(0)
 6493               	.LVL459:
 6494               	.LBB1456:
 6495               	.LBB1457:
 6496               	.LBB1458:
 6497               	.LBB1459:
 6498               	.LBB1460:
 6499               	.LBB1461:
 6500               	.LM805:
 6501 1f86 20ED      		ldi r18,lo8(2000)
 6502 1f88 37E0      		ldi r19,hi8(2000)
 6503               	.LVL460:
 6504               	.L386:
 6505 1f8a F901      		movw r30,r18
 6506               	.LVL461:
 6507               	/* #APP */
 6508               	 ;  105 "/Applications/Arduino.app/Contents/Resources/Java/hardware/tools/avr/bin/../lib/gcc/avr/4.
 6509 1f8c 3197      		1: sbiw r30,1
 6510 1f8e 01F4      		brne 1b
 6511               	 ;  0 "" 2
 6512               	/* #NOAPP */
 6513               	.LBE1461:
 6514               	.LBE1460:
 6515               	.LBE1459:
 6516               	.LBE1458:
 6517               	.LM806:
 6518 1f90 0196      		adiw r24,1
 6519 1f92 8436      		cpi r24,100
 6520 1f94 9105      		cpc r25,__zero_reg__
 6521 1f96 01F4      		brne .L386
 6522               	.LBE1457:
 6523               	.LBE1456:
 6524               	.LM807:
 6525               	/* #APP */
 6526               	 ;  1161 "stk500boot.c" 1
 6527 1f98 0000      		nop
 6528               	 ;  0 "" 2
 6529               	.LM808:
 6530               	/* #NOAPP */
 6531 1f9a 8091 C000 		lds r24,192
 6532               	.LVL462:
 6533 1f9e 8D7F      		andi r24,lo8(-3)
 6534 1fa0 8093 C000 		sts 192,r24
 6535               	.LM809:
 6536 1fa4 81E1      		ldi r24,lo8(17)
 6537               	/* #APP */
 6538               	 ;  1168 "stk500boot.c" 1
 6539 1fa6 8093 5700 		sts 87, r24
 6540 1faa E895      		spm
 6541               		
 6542               	 ;  0 "" 2
 6543               	.LM810:
 6544               	 ;  1171 "stk500boot.c" 1
 6545 1fac EE27      		clr	r30		
 6546 1fae FF27      		clr	r31		
 6547 1fb0 0994      		ijmp	
 6548               		
 6549               	 ;  0 "" 2
 6550               	/* #NOAPP */
 6551               	.L387:
 6552 1fb2 00C0      		rjmp .L387
 6553               	.LVL463:
 6554               	.L326:
 6555 1fb4 90E0      		ldi r25,lo8(0)
 6556 1fb6 0C94 0000 		jmp .L513
 6557               	.LFE20:
 6559               	.global	app_start
 6560               	.global	app_start
 6561               		.section .bss
 6564               	app_start:
 6565 0000 0000      		.skip 2,0
 6566               	.global	gTextMsg_CPU_Name
 6567               		.section	.progmem.data,"a",@progbits
 6570               	gTextMsg_CPU_Name:
 6571 0000 4154 6D65 		.string	"ATmega1280"
 6571      6761 3132 
 6571      3830 00
 6572               	.global	gTextMsg_Explorer
 6575               	gTextMsg_Explorer:
 6576 000b 4172 6475 		.string	"Arduino explorer stk500V2 by MLS"
 6576      696E 6F20 
 6576      6578 706C 
 6576      6F72 6572 
 6576      2073 746B 
 6577               	.global	gTextMsg_Prompt
 6580               	gTextMsg_Prompt:
 6581 002c 426F 6F74 		.string	"Bootloader>"
 6581      6C6F 6164 
 6581      6572 3E00 
 6582               	.global	gTextMsg_HUH
 6585               	gTextMsg_HUH:
 6586 0038 4875 683F 		.string	"Huh?"
 6586      00
 6587               	.global	gTextMsg_COMPILED_ON
 6590               	gTextMsg_COMPILED_ON:
 6591 003d 436F 6D70 		.string	"Compiled on = "
 6591      696C 6564 
 6591      206F 6E20 
 6591      3D20 00
 6592               	.global	gTextMsg_CPU_Type
 6595               	gTextMsg_CPU_Type:
 6596 004c 4350 5520 		.string	"CPU Type    = "
 6596      5479 7065 
 6596      2020 2020 
 6596      3D20 00
 6597               	.global	gTextMsg_AVR_ARCH
 6600               	gTextMsg_AVR_ARCH:
 6601 005b 5F5F 4156 		.string	"__AVR_ARCH__= "
 6601      525F 4152 
 6601      4348 5F5F 
 6601      3D20 00
 6602               	.global	gTextMsg_AVR_LIBC
 6605               	gTextMsg_AVR_LIBC:
 6606 006a 4156 5220 		.string	"AVR LibC Ver= "
 6606      4C69 6243 
 6606      2056 6572 
 6606      3D20 00
 6607               	.global	gTextMsg_GCC_VERSION
 6610               	gTextMsg_GCC_VERSION:
 6611 0079 4743 4320 		.string	"GCC Version = "
 6611      5665 7273 
 6611      696F 6E20 
 6611      3D20 00
 6612               	.global	gTextMsg_CPU_SIGNATURE
 6615               	gTextMsg_CPU_SIGNATURE:
 6616 0088 4350 5520 		.string	"CPU ID      = "
 6616      4944 2020 
 6616      2020 2020 
 6616      3D20 00
 6617               	.global	gTextMsg_FUSE_BYTE_LOW
 6620               	gTextMsg_FUSE_BYTE_LOW:
 6621 0097 4C6F 7720 		.string	"Low fuse    = "
 6621      6675 7365 
 6621      2020 2020 
 6621      3D20 00
 6622               	.global	gTextMsg_FUSE_BYTE_HIGH
 6625               	gTextMsg_FUSE_BYTE_HIGH:
 6626 00a6 4869 6768 		.string	"High fuse   = "
 6626      2066 7573 
 6626      6520 2020 
 6626      3D20 00
 6627               	.global	gTextMsg_FUSE_BYTE_EXT
 6630               	gTextMsg_FUSE_BYTE_EXT:
 6631 00b5 4578 7420 		.string	"Ext fuse    = "
 6631      6675 7365 
 6631      2020 2020 
 6631      3D20 00
 6632               	.global	gTextMsg_FUSE_BYTE_LOCK
 6635               	gTextMsg_FUSE_BYTE_LOCK:
 6636 00c4 4C6F 636B 		.string	"Lock fuse   = "
 6636      2066 7573 
 6636      6520 2020 
 6636      3D20 00
 6637               	.global	gTextMsg_GCC_DATE_STR
 6640               	gTextMsg_GCC_DATE_STR:
 6641 00d3 4D61 7920 		.string	"May 18 2015"
 6641      3138 2032 
 6641      3031 3500 
 6642               	.global	gTextMsg_AVR_LIBC_VER_STR
 6645               	gTextMsg_AVR_LIBC_VER_STR:
 6646 00df 312E 362E 		.string	"1.6.4"
 6646      3400 
 6647               	.global	gTextMsg_GCC_VERSION_STR
 6650               	gTextMsg_GCC_VERSION_STR:
 6651 00e5 342E 332E 		.string	"4.3.2"
 6651      3200 
 6652               	.global	gTextMsg_VECTOR_HEADER
 6655               	gTextMsg_VECTOR_HEADER:
 6656 00eb 5623 2020 		.string	"V#   ADDR   op code     instruction addr   Interrupt"
 6656      2041 4444 
 6656      5220 2020 
 6656      6F70 2063 
 6656      6F64 6520 
 6657               	.global	gTextMsg_noVector
 6660               	gTextMsg_noVector:
 6661 0120 6E6F 2076 		.string	"no vector"
 6661      6563 746F 
 6661      7200 
 6662               	.global	gTextMsg_rjmp
 6665               	gTextMsg_rjmp:
 6666 012a 726A 6D70 		.string	"rjmp  "
 6666      2020 00
 6667               	.global	gTextMsg_jmp
 6670               	gTextMsg_jmp:
 6671 0131 6A6D 7020 		.string	"jmp "
 6671      00
 6672               	.global	gTextMsg_WHAT_PORT
 6675               	gTextMsg_WHAT_PORT:
 6676 0136 5768 6174 		.string	"What port:"
 6676      2070 6F72 
 6676      743A 00
 6677               	.global	gTextMsg_PortNotSupported
 6680               	gTextMsg_PortNotSupported:
 6681 0141 506F 7274 		.string	"Port not supported"
 6681      206E 6F74 
 6681      2073 7570 
 6681      706F 7274 
 6681      6564 00
 6682               	.global	gTextMsg_MustBeLetter
 6685               	gTextMsg_MustBeLetter:
 6686 0154 4D75 7374 		.string	"Must be a letter"
 6686      2062 6520 
 6686      6120 6C65 
 6686      7474 6572 
 6686      00
 6687               	.global	gTextMsg_SPACE
 6690               	gTextMsg_SPACE:
 6691 0165 2000      		.string	" "
 6692               	.global	gTextMsg_WriteToEEprom
 6695               	gTextMsg_WriteToEEprom:
 6696 0167 5772 6974 		.string	"Writting EE"
 6696      7469 6E67 
 6696      2045 4500 
 6697               	.global	gTextMsg_ReadingEEprom
 6700               	gTextMsg_ReadingEEprom:
 6701 0173 5265 6164 		.string	"Reading EE"
 6701      696E 6720 
 6701      4545 00
 6702               	.global	gTextMsg_EEPROMerrorCnt
 6705               	gTextMsg_EEPROMerrorCnt:
 6706 017e 4545 2065 		.string	"EE err cnt="
 6706      7272 2063 
 6706      6E74 3D00 
 6707               	.global	gTextMsg_PORT
 6710               	gTextMsg_PORT:
 6711 018a 504F 5254 		.string	"PORT"
 6711      00
 6712               	.global	gTextMsg_HELP_MSG_0
 6715               	gTextMsg_HELP_MSG_0:
 6716 018f 303D 5A65 		.string	"0=Zero addr"
 6716      726F 2061 
 6716      6464 7200 
 6717               	.global	gTextMsg_HELP_MSG_QM
 6720               	gTextMsg_HELP_MSG_QM:
 6721 019b 3F3D 4350 		.string	"?=CPU stats"
 6721      5520 7374 
 6721      6174 7300 
 6722               	.global	gTextMsg_HELP_MSG_AT
 6725               	gTextMsg_HELP_MSG_AT:
 6726 01a7 403D 4545 		.string	"@=EEPROM test"
 6726      5052 4F4D 
 6726      2074 6573 
 6726      7400 
 6727               	.global	gTextMsg_HELP_MSG_B
 6730               	gTextMsg_HELP_MSG_B:
 6731 01b5 423D 426C 		.string	"B=Blink LED"
 6731      696E 6B20 
 6731      4C45 4400 
 6732               	.global	gTextMsg_HELP_MSG_E
 6735               	gTextMsg_HELP_MSG_E:
 6736 01c1 453D 4475 		.string	"E=Dump EEPROM"
 6736      6D70 2045 
 6736      4550 524F 
 6736      4D00 
 6737               	.global	gTextMsg_HELP_MSG_F
 6740               	gTextMsg_HELP_MSG_F:
 6741 01cf 463D 4475 		.string	"F=Dump FLASH"
 6741      6D70 2046 
 6741      4C41 5348 
 6741      00
 6742               	.global	gTextMsg_HELP_MSG_H
 6745               	gTextMsg_HELP_MSG_H:
 6746 01dc 483D 4865 		.string	"H=Help"
 6746      6C70 00
 6747               	.global	gTextMsg_HELP_MSG_L
 6750               	gTextMsg_HELP_MSG_L:
 6751 01e3 4C3D 4C69 		.string	"L=List I/O Ports"
 6751      7374 2049 
 6751      2F4F 2050 
 6751      6F72 7473 
 6751      00
 6752               	.global	gTextMsg_HELP_MSG_Q
 6755               	gTextMsg_HELP_MSG_Q:
 6756 01f4 513D 5175 		.string	"Q=Quit"
 6756      6974 00
 6757               	.global	gTextMsg_HELP_MSG_R
 6760               	gTextMsg_HELP_MSG_R:
 6761 01fb 523D 4475 		.string	"R=Dump RAM"
 6761      6D70 2052 
 6761      414D 00
 6762               	.global	gTextMsg_HELP_MSG_V
 6765               	gTextMsg_HELP_MSG_V:
 6766 0206 563D 7368 		.string	"V=show interrupt Vectors"
 6766      6F77 2069 
 6766      6E74 6572 
 6766      7275 7074 
 6766      2056 6563 
 6767               	.global	gTextMsg_HELP_MSG_Y
 6770               	gTextMsg_HELP_MSG_Y:
 6771 021f 593D 506F 		.string	"Y=Port blink"
 6771      7274 2062 
 6771      6C69 6E6B 
 6771      00
 6772               	.global	gTextMsg_END
 6775               	gTextMsg_END:
 6776 022c 2A00      		.string	"*"
 6777               		.comm gRamIndex,4,1
 6778               		.comm gFlashIndex,4,1
 6779               		.comm gEepromIndex,4,1
 6884               	.Letext0:
DEFINED SYMBOLS
                            *ABS*:00000000 stk500boot.c
/var/folders/8k/v9gprwvn01zdxs6cz2zwqlph0000gn/T//ccsaHGX7.s:2      *ABS*:0000003f __SREG__
/var/folders/8k/v9gprwvn01zdxs6cz2zwqlph0000gn/T//ccsaHGX7.s:3      *ABS*:0000003e __SP_H__
/var/folders/8k/v9gprwvn01zdxs6cz2zwqlph0000gn/T//ccsaHGX7.s:4      *ABS*:0000003d __SP_L__
/var/folders/8k/v9gprwvn01zdxs6cz2zwqlph0000gn/T//ccsaHGX7.s:5      *ABS*:00000034 __CCP__
/var/folders/8k/v9gprwvn01zdxs6cz2zwqlph0000gn/T//ccsaHGX7.s:6      *ABS*:00000000 __tmp_reg__
/var/folders/8k/v9gprwvn01zdxs6cz2zwqlph0000gn/T//ccsaHGX7.s:7      *ABS*:00000001 __zero_reg__
/var/folders/8k/v9gprwvn01zdxs6cz2zwqlph0000gn/T//ccsaHGX7.s:21     .init9:00000000 __jumpMain
/var/folders/8k/v9gprwvn01zdxs6cz2zwqlph0000gn/T//ccsaHGX7.s:29     *ABS*:000021ff __stack
/var/folders/8k/v9gprwvn01zdxs6cz2zwqlph0000gn/T//ccsaHGX7.s:1009   .text:0000044e main
/var/folders/8k/v9gprwvn01zdxs6cz2zwqlph0000gn/T//ccsaHGX7.s:67     .text:00000000 delay_ms
/var/folders/8k/v9gprwvn01zdxs6cz2zwqlph0000gn/T//ccsaHGX7.s:112    .text:0000001c PrintFromPROGMEM
/var/folders/8k/v9gprwvn01zdxs6cz2zwqlph0000gn/T//ccsaHGX7.s:169    .text:00000050 PrintNewLine
/var/folders/8k/v9gprwvn01zdxs6cz2zwqlph0000gn/T//ccsaHGX7.s:213    .text:00000082 PrintFromPROGMEMln
/var/folders/8k/v9gprwvn01zdxs6cz2zwqlph0000gn/T//ccsaHGX7.s:314    .text:000000e6 PrintString
/var/folders/8k/v9gprwvn01zdxs6cz2zwqlph0000gn/T//ccsaHGX7.s:356    .text:0000010c PrintHexByte
/var/folders/8k/v9gprwvn01zdxs6cz2zwqlph0000gn/T//ccsaHGX7.s:426    .text:0000015a PrintDecInt
/var/folders/8k/v9gprwvn01zdxs6cz2zwqlph0000gn/T//ccsaHGX7.s:529    .text:000001e8 DumpHex
/var/folders/8k/v9gprwvn01zdxs6cz2zwqlph0000gn/T//ccsaHGX7.s:894    .text:000003d4 PrintAvailablePort
/var/folders/8k/v9gprwvn01zdxs6cz2zwqlph0000gn/T//ccsaHGX7.s:6710   .progmem.data:0000018a gTextMsg_PORT
/var/folders/8k/v9gprwvn01zdxs6cz2zwqlph0000gn/T//ccsaHGX7.s:6564   .bss:00000000 app_start
                            *COM*:00000004 gRamIndex
                            *COM*:00000004 gFlashIndex
                            *COM*:00000004 gEepromIndex
/var/folders/8k/v9gprwvn01zdxs6cz2zwqlph0000gn/T//ccsaHGX7.s:6575   .progmem.data:0000000b gTextMsg_Explorer
/var/folders/8k/v9gprwvn01zdxs6cz2zwqlph0000gn/T//ccsaHGX7.s:6580   .progmem.data:0000002c gTextMsg_Prompt
/var/folders/8k/v9gprwvn01zdxs6cz2zwqlph0000gn/T//ccsaHGX7.s:6715   .progmem.data:0000018f gTextMsg_HELP_MSG_0
/var/folders/8k/v9gprwvn01zdxs6cz2zwqlph0000gn/T//ccsaHGX7.s:6720   .progmem.data:0000019b gTextMsg_HELP_MSG_QM
/var/folders/8k/v9gprwvn01zdxs6cz2zwqlph0000gn/T//ccsaHGX7.s:6590   .progmem.data:0000003d gTextMsg_COMPILED_ON
/var/folders/8k/v9gprwvn01zdxs6cz2zwqlph0000gn/T//ccsaHGX7.s:6640   .progmem.data:000000d3 gTextMsg_GCC_DATE_STR
/var/folders/8k/v9gprwvn01zdxs6cz2zwqlph0000gn/T//ccsaHGX7.s:6595   .progmem.data:0000004c gTextMsg_CPU_Type
/var/folders/8k/v9gprwvn01zdxs6cz2zwqlph0000gn/T//ccsaHGX7.s:6570   .progmem.data:00000000 gTextMsg_CPU_Name
/var/folders/8k/v9gprwvn01zdxs6cz2zwqlph0000gn/T//ccsaHGX7.s:6600   .progmem.data:0000005b gTextMsg_AVR_ARCH
/var/folders/8k/v9gprwvn01zdxs6cz2zwqlph0000gn/T//ccsaHGX7.s:6610   .progmem.data:00000079 gTextMsg_GCC_VERSION
/var/folders/8k/v9gprwvn01zdxs6cz2zwqlph0000gn/T//ccsaHGX7.s:6650   .progmem.data:000000e5 gTextMsg_GCC_VERSION_STR
/var/folders/8k/v9gprwvn01zdxs6cz2zwqlph0000gn/T//ccsaHGX7.s:6605   .progmem.data:0000006a gTextMsg_AVR_LIBC
/var/folders/8k/v9gprwvn01zdxs6cz2zwqlph0000gn/T//ccsaHGX7.s:6645   .progmem.data:000000df gTextMsg_AVR_LIBC_VER_STR
/var/folders/8k/v9gprwvn01zdxs6cz2zwqlph0000gn/T//ccsaHGX7.s:6615   .progmem.data:00000088 gTextMsg_CPU_SIGNATURE
/var/folders/8k/v9gprwvn01zdxs6cz2zwqlph0000gn/T//ccsaHGX7.s:6620   .progmem.data:00000097 gTextMsg_FUSE_BYTE_LOW
/var/folders/8k/v9gprwvn01zdxs6cz2zwqlph0000gn/T//ccsaHGX7.s:6625   .progmem.data:000000a6 gTextMsg_FUSE_BYTE_HIGH
/var/folders/8k/v9gprwvn01zdxs6cz2zwqlph0000gn/T//ccsaHGX7.s:6630   .progmem.data:000000b5 gTextMsg_FUSE_BYTE_EXT
/var/folders/8k/v9gprwvn01zdxs6cz2zwqlph0000gn/T//ccsaHGX7.s:6635   .progmem.data:000000c4 gTextMsg_FUSE_BYTE_LOCK
/var/folders/8k/v9gprwvn01zdxs6cz2zwqlph0000gn/T//ccsaHGX7.s:6725   .progmem.data:000001a7 gTextMsg_HELP_MSG_AT
/var/folders/8k/v9gprwvn01zdxs6cz2zwqlph0000gn/T//ccsaHGX7.s:6695   .progmem.data:00000167 gTextMsg_WriteToEEprom
/var/folders/8k/v9gprwvn01zdxs6cz2zwqlph0000gn/T//ccsaHGX7.s:6690   .progmem.data:00000165 gTextMsg_SPACE
/var/folders/8k/v9gprwvn01zdxs6cz2zwqlph0000gn/T//ccsaHGX7.s:6700   .progmem.data:00000173 gTextMsg_ReadingEEprom
/var/folders/8k/v9gprwvn01zdxs6cz2zwqlph0000gn/T//ccsaHGX7.s:6705   .progmem.data:0000017e gTextMsg_EEPROMerrorCnt
/var/folders/8k/v9gprwvn01zdxs6cz2zwqlph0000gn/T//ccsaHGX7.s:6730   .progmem.data:000001b5 gTextMsg_HELP_MSG_B
/var/folders/8k/v9gprwvn01zdxs6cz2zwqlph0000gn/T//ccsaHGX7.s:6735   .progmem.data:000001c1 gTextMsg_HELP_MSG_E
/var/folders/8k/v9gprwvn01zdxs6cz2zwqlph0000gn/T//ccsaHGX7.s:6740   .progmem.data:000001cf gTextMsg_HELP_MSG_F
/var/folders/8k/v9gprwvn01zdxs6cz2zwqlph0000gn/T//ccsaHGX7.s:6745   .progmem.data:000001dc gTextMsg_HELP_MSG_H
/var/folders/8k/v9gprwvn01zdxs6cz2zwqlph0000gn/T//ccsaHGX7.s:6750   .progmem.data:000001e3 gTextMsg_HELP_MSG_L
/var/folders/8k/v9gprwvn01zdxs6cz2zwqlph0000gn/T//ccsaHGX7.s:6755   .progmem.data:000001f4 gTextMsg_HELP_MSG_Q
/var/folders/8k/v9gprwvn01zdxs6cz2zwqlph0000gn/T//ccsaHGX7.s:6760   .progmem.data:000001fb gTextMsg_HELP_MSG_R
/var/folders/8k/v9gprwvn01zdxs6cz2zwqlph0000gn/T//ccsaHGX7.s:6765   .progmem.data:00000206 gTextMsg_HELP_MSG_V
/var/folders/8k/v9gprwvn01zdxs6cz2zwqlph0000gn/T//ccsaHGX7.s:6770   .progmem.data:0000021f gTextMsg_HELP_MSG_Y
/var/folders/8k/v9gprwvn01zdxs6cz2zwqlph0000gn/T//ccsaHGX7.s:6655   .progmem.data:000000eb gTextMsg_VECTOR_HEADER
/var/folders/8k/v9gprwvn01zdxs6cz2zwqlph0000gn/T//ccsaHGX7.s:6660   .progmem.data:00000120 gTextMsg_noVector
/var/folders/8k/v9gprwvn01zdxs6cz2zwqlph0000gn/T//ccsaHGX7.s:6665   .progmem.data:0000012a gTextMsg_rjmp
/var/folders/8k/v9gprwvn01zdxs6cz2zwqlph0000gn/T//ccsaHGX7.s:6670   .progmem.data:00000131 gTextMsg_jmp
/var/folders/8k/v9gprwvn01zdxs6cz2zwqlph0000gn/T//ccsaHGX7.s:6675   .progmem.data:00000136 gTextMsg_WHAT_PORT
/var/folders/8k/v9gprwvn01zdxs6cz2zwqlph0000gn/T//ccsaHGX7.s:6680   .progmem.data:00000141 gTextMsg_PortNotSupported
/var/folders/8k/v9gprwvn01zdxs6cz2zwqlph0000gn/T//ccsaHGX7.s:6685   .progmem.data:00000154 gTextMsg_MustBeLetter
/var/folders/8k/v9gprwvn01zdxs6cz2zwqlph0000gn/T//ccsaHGX7.s:6585   .progmem.data:00000038 gTextMsg_HUH
/var/folders/8k/v9gprwvn01zdxs6cz2zwqlph0000gn/T//ccsaHGX7.s:6775   .progmem.data:0000022c gTextMsg_END

UNDEFINED SYMBOLS
__do_copy_data
__do_clear_bss
__divmodhi4
__udivmodsi4
